Archive member included to satisfy reference by file (symbol)

/home/jberben/Casio/sh3eb-elf-2.32-8.3.0/lib/gcc/sh3eb-elf/8.3.0/../../../../sh3eb-elf/lib/libm.a(lib_a-s_cos.o)
                              build.fx/mathutils.o (_cos)
/home/jberben/Casio/sh3eb-elf-2.32-8.3.0/lib/gcc/sh3eb-elf/8.3.0/../../../../sh3eb-elf/lib/libm.a(lib_a-s_fabs.o)
                              build.fx/mathutils.o (_fabs)
/home/jberben/Casio/sh3eb-elf-2.32-8.3.0/lib/gcc/sh3eb-elf/8.3.0/../../../../sh3eb-elf/lib/libm.a(lib_a-s_sin.o)
                              build.fx/mathutils.o (_sin)
/home/jberben/Casio/sh3eb-elf-2.32-8.3.0/lib/gcc/sh3eb-elf/8.3.0/../../../../sh3eb-elf/lib/libm.a(lib_a-s_tan.o)
                              build.fx/mathutils.o (_tan)
/home/jberben/Casio/sh3eb-elf-2.32-8.3.0/lib/gcc/sh3eb-elf/8.3.0/../../../../sh3eb-elf/lib/libm.a(lib_a-e_rem_pio2.o)
                              /home/jberben/Casio/sh3eb-elf-2.32-8.3.0/lib/gcc/sh3eb-elf/8.3.0/../../../../sh3eb-elf/lib/libm.a(lib_a-s_cos.o) (___ieee754_rem_pio2)
/home/jberben/Casio/sh3eb-elf-2.32-8.3.0/lib/gcc/sh3eb-elf/8.3.0/../../../../sh3eb-elf/lib/libm.a(lib_a-k_cos.o)
                              /home/jberben/Casio/sh3eb-elf-2.32-8.3.0/lib/gcc/sh3eb-elf/8.3.0/../../../../sh3eb-elf/lib/libm.a(lib_a-s_cos.o) (___kernel_cos)
/home/jberben/Casio/sh3eb-elf-2.32-8.3.0/lib/gcc/sh3eb-elf/8.3.0/../../../../sh3eb-elf/lib/libm.a(lib_a-k_rem_pio2.o)
                              /home/jberben/Casio/sh3eb-elf-2.32-8.3.0/lib/gcc/sh3eb-elf/8.3.0/../../../../sh3eb-elf/lib/libm.a(lib_a-e_rem_pio2.o) (___kernel_rem_pio2)
/home/jberben/Casio/sh3eb-elf-2.32-8.3.0/lib/gcc/sh3eb-elf/8.3.0/../../../../sh3eb-elf/lib/libm.a(lib_a-k_sin.o)
                              /home/jberben/Casio/sh3eb-elf-2.32-8.3.0/lib/gcc/sh3eb-elf/8.3.0/../../../../sh3eb-elf/lib/libm.a(lib_a-s_cos.o) (___kernel_sin)
/home/jberben/Casio/sh3eb-elf-2.32-8.3.0/lib/gcc/sh3eb-elf/8.3.0/../../../../sh3eb-elf/lib/libm.a(lib_a-k_tan.o)
                              /home/jberben/Casio/sh3eb-elf-2.32-8.3.0/lib/gcc/sh3eb-elf/8.3.0/../../../../sh3eb-elf/lib/libm.a(lib_a-s_tan.o) (___kernel_tan)
/home/jberben/Casio/sh3eb-elf-2.32-8.3.0/lib/gcc/sh3eb-elf/8.3.0/../../../../sh3eb-elf/lib/libm.a(lib_a-s_floor.o)
                              /home/jberben/Casio/sh3eb-elf-2.32-8.3.0/lib/gcc/sh3eb-elf/8.3.0/../../../../sh3eb-elf/lib/libm.a(lib_a-k_rem_pio2.o) (_floor)
/home/jberben/Casio/sh3eb-elf-2.32-8.3.0/lib/gcc/sh3eb-elf/8.3.0/../../../../sh3eb-elf/lib/libm.a(lib_a-s_scalbn.o)
                              /home/jberben/Casio/sh3eb-elf-2.32-8.3.0/lib/gcc/sh3eb-elf/8.3.0/../../../../sh3eb-elf/lib/libm.a(lib_a-k_rem_pio2.o) (_scalbn)
/usr/share/fxsdk/libfx.a(memcpy.robj)
                              build.fx/main.o (_memcpy)
/usr/share/fxsdk/libfx.a(_calloc.robj)
                              build.fx/renderer.o (_calloc)
/usr/share/fxsdk/libfx.a(_malloc.robj)
                              build.fx/game.o (_malloc)
/usr/share/fxsdk/libfx.a(filebios.robj)
                              build.fx/main.o (_Bfile_CloseFile)
/usr/share/fxsdk/libfx.a(__s_mvn.robj)
                              /usr/share/fxsdk/libfx.a(filebios.robj) (__slow_mvn)
/usr/share/fxsdk/libfx.a(strncmp.robj)
                              /usr/share/fxsdk/libfx.a(filebios.robj) (_strncmp)
/usr/share/fxsdk/libfx.a(_Bfile_CloseFile.robj)
                              /usr/share/fxsdk/libfx.a(filebios.robj) (_Bfile_CloseFile_OS)
/usr/share/fxsdk/libfx.a(_Bfile_CreateEntry.robj)
                              /usr/share/fxsdk/libfx.a(filebios.robj) (_Bfile_CreateEntry)
/usr/share/fxsdk/libfx.a(_Bfile_DeleteEntry.robj)
                              /usr/share/fxsdk/libfx.a(filebios.robj) (_Bfile_DeleteEntry)
/usr/share/fxsdk/libfx.a(_Bfile_GetFileSize.robj)
                              /usr/share/fxsdk/libfx.a(filebios.robj) (_Bfile_GetFileSize_OS)
/usr/share/fxsdk/libfx.a(_Bfile_GetMediaFree.robj)
                              /usr/share/fxsdk/libfx.a(filebios.robj) (_Bfile_GetMediaFree_OS)
/usr/share/fxsdk/libfx.a(_Bfile_OpenFile.robj)
                              /usr/share/fxsdk/libfx.a(filebios.robj) (_Bfile_OpenFile_OS)
/usr/share/fxsdk/libfx.a(_Bfile_ReadFile.robj)
                              /usr/share/fxsdk/libfx.a(filebios.robj) (_Bfile_ReadFile_OS)
/usr/share/fxsdk/libfx.a(_Bfile_SeekFile.robj)
                              /usr/share/fxsdk/libfx.a(filebios.robj) (_Bfile_SeekFile_OS)
/usr/share/fxsdk/libfx.a(_Bfile_WriteFile.robj)
                              /usr/share/fxsdk/libfx.a(filebios.robj) (_Bfile_WriteFile_OS)
/usr/share/fxsdk/libfx.a(_BMCSRenameVariable.robj)
                              /usr/share/fxsdk/libfx.a(filebios.robj) (_BMCSRenameVariable)
/usr/share/fxsdk/libfx.a(_GetAppName.robj)
                              /usr/share/fxsdk/libfx.a(filebios.robj) (_GetAppName)
/usr/share/fxsdk/libfx.a(_MCSDelVar2.robj)
                              /usr/share/fxsdk/libfx.a(filebios.robj) (_MCSDelVar2)
/usr/share/fxsdk/libfx.a(_MCSGetCapa.robj)
                              /usr/share/fxsdk/libfx.a(filebios.robj) (_MCSGetCapa)
/usr/share/fxsdk/libfx.a(_MCSGetData1.robj)
                              /usr/share/fxsdk/libfx.a(filebios.robj) (_MCSGetData1)
/usr/share/fxsdk/libfx.a(_MCSGetDlen2.robj)
                              /usr/share/fxsdk/libfx.a(filebios.robj) (_MCSGetDlen2)
/usr/share/fxsdk/libfx.a(_MCSOvwDat2.robj)
                              /usr/share/fxsdk/libfx.a(filebios.robj) (_MCSOvwDat2)
/usr/share/fxsdk/libfx.a(_MCSPutVar2.robj)
                              /usr/share/fxsdk/libfx.a(filebios.robj) (_MCSPutVar2)
/usr/share/fxsdk/libgint.a(bopti_dimage.c.o)
                              build.fx/main.o (_dimage)
/usr/share/fxsdk/libgint.a(clock_clock.c.o)
                              build.fx/main.o (_sleep_ms)
/usr/share/fxsdk/libgint.a(core_modules.c.o)
                              /usr/share/fxsdk/libgint.a(clock_clock.c.o) (_TMU)
/usr/share/fxsdk/libgint.a(core_mpu.c.o)
                              /usr/share/fxsdk/libgint.a(clock_clock.c.o) (_MPU_CURRENT)
/usr/share/fxsdk/libgint.a(display_getMasks.c.o)
                              /usr/share/fxsdk/libgint.a(bopti_dimage.c.o) (_getMasks)
/usr/share/fxsdk/libgint.a(display_drect.c.o)
                              build.fx/main.o (_drect)
/usr/share/fxsdk/libgint.a(display_display_vram.c.o)
                              /usr/share/fxsdk/libgint.a(bopti_dimage.c.o) (_display_getCurrentVRAM)
/usr/share/fxsdk/libgint.a(display_adjustRectangle.c.o)
                              /usr/share/fxsdk/libgint.a(display_drect.c.o) (_adjustRectangle)
/usr/share/fxsdk/libgint.a(display_dclear.c.o)
                              build.fx/game.o (_dclear)
/usr/share/fxsdk/libgint.a(display_dpixel.c.o)
                              build.fx/mathutils.o (_dpixel)
/usr/share/fxsdk/libgint.a(display_dupdate.c.o)
                              build.fx/game.o (_dupdate)
/usr/share/fxsdk/libgint.a(display_dline.c.o)
                              build.fx/main.o (_dline)
/usr/share/fxsdk/libgint.a(gray_gray_engine.c.o)
                              build.fx/main.o (_gray_start)
/usr/share/fxsdk/libgint.a(gray_gclear.c.o)
                              build.fx/main.o (_gclear)
/usr/share/fxsdk/libgint.a(gray_grect.c.o)
                              build.fx/main.o (_grect)
/usr/share/fxsdk/libgint.a(init_crt0.c.o)
                              (_start)
/usr/share/fxsdk/libgint.a(init_util.c.o)
                              /usr/share/fxsdk/libgint.a(init_crt0.c.o) (_init_halt)
/usr/share/fxsdk/libgint.a(keyboard_getkey.c.o)
                              build.fx/game.o (_getkey_opt)
/usr/share/fxsdk/libgint.a(keyboard_key_type.c.o)
                              /usr/share/fxsdk/libgint.a(keyboard_getkey.c.o) (_key_type)
/usr/share/fxsdk/libgint.a(keyboard_keyboard_core.c.o)
                              /usr/share/fxsdk/libgint.a(keyboard_getkey.c.o) (_interrupt_flag)
/usr/share/fxsdk/libgint.a(mmu_pseudoTLBInit.c.o)
                              /usr/share/fxsdk/libgint.a(init_crt0.c.o) (_mmu_pseudoTLBInit)
/usr/share/fxsdk/libgint.a(rtc_rtc_callback.c.o)
                              /usr/share/fxsdk/libgint.a(clock_clock.c.o) (_rtc_cb_add)
/usr/share/fxsdk/libgint.a(screen_screen_display.c.o)
                              /usr/share/fxsdk/libgint.a(display_dupdate.c.o) (_screen_display)
/usr/share/fxsdk/libgint.a(screen_screen_backlight.c.o)
                              /usr/share/fxsdk/libgint.a(keyboard_getkey.c.o) (_screen_toggleBacklight)
/usr/share/fxsdk/libgint.a(tales_dprint.c.o)
                              build.fx/main.o (_dprint)
/usr/share/fxsdk/libgint.a(tales_dtext.c.o)
                              build.fx/main.o (_dtext)
/usr/share/fxsdk/libgint.a(tales_tales_configuration.c.o)
                              build.fx/main.o (_text_configure)
/usr/share/fxsdk/libgint.a(timer_common_api.c.o)
                              /usr/share/fxsdk/libgint.a(clock_clock.c.o) (_timer_attach)
/usr/share/fxsdk/libgint.a(timer_virtual_timers.c.o)
                              /usr/share/fxsdk/libgint.a(clock_clock.c.o) (_timer_create)
/usr/share/fxsdk/libgint.a(timer_hardware_timers.c.o)
                              /usr/share/fxsdk/libgint.a(clock_clock.c.o) (_htimer_setup)
/usr/share/fxsdk/libgint.a(display_font_system.bmp.o)
                              /usr/share/fxsdk/libgint.a(tales_tales_configuration.c.o) (_gint_font_system)
/usr/share/fxsdk/libgint.a(version.o)
                              /usr/share/fxsdk/libgint.a(init_util.c.o) (_GINT_VERSION)
/usr/share/fxsdk/libgint.a(bopti_bopti_internals.c.o)
                              /usr/share/fxsdk/libgint.a(bopti_dimage.c.o) (_bopti_op_mono)
/usr/share/fxsdk/libgint.a(core_init_quit.c.o)
                              /usr/share/fxsdk/libgint.a(init_crt0.c.o) (_gint_init)
/usr/share/fxsdk/libgint.a(core_gint.c.o)
                              /usr/share/fxsdk/libgint.a(core_init_quit.c.o) (_gint_handlers)
/usr/share/fxsdk/libgint.a(core_gint_sh7305.c.o)
                              /usr/share/fxsdk/libgint.a(core_gint.c.o) (_gint_reg_7305)
/usr/share/fxsdk/libgint.a(core_syscalls.s.o)
                              /usr/share/fxsdk/libgint.a(core_init_quit.c.o) (___system_menu)
/usr/share/fxsdk/libgint.a(core_gint_vbr.s.o)
                              /usr/share/fxsdk/libgint.a(core_init_quit.c.o) (_gint_getvbr)
/usr/share/fxsdk/libgint.a(events_event_get.c.o)
                              /usr/share/fxsdk/libgint.a(keyboard_getkey.c.o) (_pollevent)
/usr/share/fxsdk/libgint.a(events_event_push.c.o)
                              /usr/share/fxsdk/libgint.a(keyboard_keyboard_core.c.o) (_event_push)
/usr/share/fxsdk/libgint.a(keyboard_key_char.c.o)
                              /usr/share/fxsdk/libgint.a(keyboard_key_type.c.o) (_key_char)
/usr/share/fxsdk/libgint.a(keyboard_keyboard_sh7305.c.o)
                              /usr/share/fxsdk/libgint.a(keyboard_keyboard_core.c.o) (_keyboard_updateState_7305)
/usr/share/fxsdk/libgint.a(keyboard_keyboard_sh7705.c.o)
                              /usr/share/fxsdk/libgint.a(keyboard_keyboard_core.c.o) (_keyboard_updateState_7705)
/usr/share/fxsdk/libgint.a(keyboard_key_id.c.o)
                              /usr/share/fxsdk/libgint.a(keyboard_keyboard_core.c.o) (_key_id)
/usr/share/fxsdk/libgint.a(tales_tales_internals.c.o)
                              /usr/share/fxsdk/libgint.a(tales_tales_configuration.c.o) (_font)
/usr/share/fxsdk/libgint.a(core_vbr_space.c.o)
                              /usr/share/fxsdk/libgint.a(core_gint.c.o) (_gint_exc)
/usr/share/fxsdk/libgint.a(core_interrupts.c.o)
                              /usr/share/fxsdk/libgint.a(core_gint.c.o) (_inth_timer_underflow)
/usr/share/fxsdk/libgint.a(core_gint_sh7705.c.o)
                              /usr/share/fxsdk/libgint.a(core_gint.c.o) (_gint_reg_7705)
/usr/share/fxsdk/libgint.a(core_exceptions.c.o)
                              /usr/share/fxsdk/libgint.a(core_gint.c.o) (_exch_address_error)
/usr/share/fxsdk/libgint.a(core_interrupt_maps_7705.c.o)
                              /usr/share/fxsdk/libgint.a(core_vbr_space.c.o) (_gint_map_7705)
/usr/share/fxsdk/libgint.a(rtc_rtc_interrupt.c.o)
                              /usr/share/fxsdk/libgint.a(core_interrupts.c.o) (_rtc_periodic_interrupt)
/usr/share/fxsdk/libgint.a(core_interrupt_maps_7305.c.o)
                              /usr/share/fxsdk/libgint.a(core_vbr_space.c.o) (_gint_map_7305)
/usr/share/fxsdk/libc.a(ctype_ctype_classes.c.o)
                              /usr/share/fxsdk/libgint.a(tales_tales_internals.c.o) (_ctype_classes)
/usr/share/fxsdk/libc.a(math_math_qdiv.c.o)
                              /usr/share/fxsdk/libgint.a(init_util.c.o) (_qdiv)
/usr/share/fxsdk/libc.a(setjmp_setjmp.s.o)
                              /usr/share/fxsdk/libgint.a(init_crt0.c.o) (_setjmp)
/usr/share/fxsdk/libc.a(stdio_stdio_format.c.o)
                              /usr/share/fxsdk/libgint.a(tales_dprint.c.o) (___stdio_buffer)
/usr/share/fxsdk/libc.a(stdlib_free.c.o)
                              /usr/share/fxsdk/libgint.a(gray_gray_engine.c.o) (_free)
/usr/share/fxsdk/libc.a(string_strlen.c.o)
                              /usr/share/fxsdk/libgint.a(core_exceptions.c.o) (_strlen)
/usr/share/fxsdk/libc.a(string_memset.c.o)
                              /usr/share/fxsdk/libgint.a(keyboard_keyboard_core.c.o) (_memset)
/usr/share/fxsdk/libc.a(string_strchr.c.o)
                              /usr/share/fxsdk/libc.a(stdio_stdio_format.c.o) (_strchr)
/home/jberben/Casio/sh3eb-elf-2.32-8.3.0/lib/gcc/sh3eb-elf/8.3.0/libgcc.a(_movmem.o)
                              build.fx/mathutils.o (___movmem)
/home/jberben/Casio/sh3eb-elf-2.32-8.3.0/lib/gcc/sh3eb-elf/8.3.0/libgcc.a(_sdivsi3.o)
                              build.fx/renderer.o (___sdivsi3)
/home/jberben/Casio/sh3eb-elf-2.32-8.3.0/lib/gcc/sh3eb-elf/8.3.0/libgcc.a(_udivdi3.o)
                              /usr/share/fxsdk/libgint.a(clock_clock.c.o) (___udivdi3)
/home/jberben/Casio/sh3eb-elf-2.32-8.3.0/lib/gcc/sh3eb-elf/8.3.0/libgcc.a(_addsub_df.o)
                              build.fx/mathutils.o (___adddf3)
/home/jberben/Casio/sh3eb-elf-2.32-8.3.0/lib/gcc/sh3eb-elf/8.3.0/libgcc.a(_mul_df.o)
                              build.fx/mathutils.o (___muldf3)
/home/jberben/Casio/sh3eb-elf-2.32-8.3.0/lib/gcc/sh3eb-elf/8.3.0/libgcc.a(_div_df.o)
                              build.fx/mathutils.o (___divdf3)
/home/jberben/Casio/sh3eb-elf-2.32-8.3.0/lib/gcc/sh3eb-elf/8.3.0/libgcc.a(_eq_df.o)
                              /home/jberben/Casio/sh3eb-elf-2.32-8.3.0/lib/gcc/sh3eb-elf/8.3.0/../../../../sh3eb-elf/lib/libm.a(lib_a-e_rem_pio2.o) (___eqdf2)
/home/jberben/Casio/sh3eb-elf-2.32-8.3.0/lib/gcc/sh3eb-elf/8.3.0/libgcc.a(_ne_df.o)
                              build.fx/mathutils.o (___nedf2)
/home/jberben/Casio/sh3eb-elf-2.32-8.3.0/lib/gcc/sh3eb-elf/8.3.0/libgcc.a(_gt_df.o)
                              build.fx/mathutils.o (___gtdf2)
/home/jberben/Casio/sh3eb-elf-2.32-8.3.0/lib/gcc/sh3eb-elf/8.3.0/libgcc.a(_ge_df.o)
                              /home/jberben/Casio/sh3eb-elf-2.32-8.3.0/lib/gcc/sh3eb-elf/8.3.0/../../../../sh3eb-elf/lib/libm.a(lib_a-k_rem_pio2.o) (___gedf2)
/home/jberben/Casio/sh3eb-elf-2.32-8.3.0/lib/gcc/sh3eb-elf/8.3.0/libgcc.a(_lt_df.o)
                              build.fx/mathutils.o (___ltdf2)
/home/jberben/Casio/sh3eb-elf-2.32-8.3.0/lib/gcc/sh3eb-elf/8.3.0/libgcc.a(_le_df.o)
                              build.fx/main.o (___ledf2)
/home/jberben/Casio/sh3eb-elf-2.32-8.3.0/lib/gcc/sh3eb-elf/8.3.0/libgcc.a(_si_to_df.o)
                              build.fx/mathutils.o (___floatsidf)
/home/jberben/Casio/sh3eb-elf-2.32-8.3.0/lib/gcc/sh3eb-elf/8.3.0/libgcc.a(_df_to_si.o)
                              build.fx/mathutils.o (___fixdfsi)
/home/jberben/Casio/sh3eb-elf-2.32-8.3.0/lib/gcc/sh3eb-elf/8.3.0/libgcc.a(_thenan_df.o)
                              /home/jberben/Casio/sh3eb-elf-2.32-8.3.0/lib/gcc/sh3eb-elf/8.3.0/libgcc.a(_addsub_df.o) (___thenan_df)
/home/jberben/Casio/sh3eb-elf-2.32-8.3.0/lib/gcc/sh3eb-elf/8.3.0/libgcc.a(_udivsi3.o)
                              /home/jberben/Casio/sh3eb-elf-2.32-8.3.0/lib/gcc/sh3eb-elf/8.3.0/libgcc.a(_udivdi3.o) (___udivsi3)
/home/jberben/Casio/sh3eb-elf-2.32-8.3.0/lib/gcc/sh3eb-elf/8.3.0/libgcc.a(_udiv_qrnnd_16.o)
                              /home/jberben/Casio/sh3eb-elf-2.32-8.3.0/lib/gcc/sh3eb-elf/8.3.0/libgcc.a(_udivdi3.o) (___udiv_qrnnd_16)
/home/jberben/Casio/sh3eb-elf-2.32-8.3.0/lib/gcc/sh3eb-elf/8.3.0/libgcc.a(_clz.o)
                              /home/jberben/Casio/sh3eb-elf-2.32-8.3.0/lib/gcc/sh3eb-elf/8.3.0/libgcc.a(_udivdi3.o) (___clz_tab)
/home/jberben/Casio/sh3eb-elf-2.32-8.3.0/lib/gcc/sh3eb-elf/8.3.0/libgcc.a(_clzsi2.o)
                              /home/jberben/Casio/sh3eb-elf-2.32-8.3.0/lib/gcc/sh3eb-elf/8.3.0/libgcc.a(_si_to_df.o) (___clzsi2)
/home/jberben/Casio/sh3eb-elf-2.32-8.3.0/lib/gcc/sh3eb-elf/8.3.0/libgcc.a(_pack_df.o)
                              /home/jberben/Casio/sh3eb-elf-2.32-8.3.0/lib/gcc/sh3eb-elf/8.3.0/libgcc.a(_addsub_df.o) (___pack_d)
/home/jberben/Casio/sh3eb-elf-2.32-8.3.0/lib/gcc/sh3eb-elf/8.3.0/libgcc.a(_unpack_df.o)
                              /home/jberben/Casio/sh3eb-elf-2.32-8.3.0/lib/gcc/sh3eb-elf/8.3.0/libgcc.a(_addsub_df.o) (___unpack_d)
/home/jberben/Casio/sh3eb-elf-2.32-8.3.0/lib/gcc/sh3eb-elf/8.3.0/libgcc.a(_fpcmp_parts_df.o)
                              /home/jberben/Casio/sh3eb-elf-2.32-8.3.0/lib/gcc/sh3eb-elf/8.3.0/libgcc.a(_eq_df.o) (___fpcmp_parts_d)

Allocating common symbols
Common symbol       size              file

__stdio_buffer      0x100             /usr/share/fxsdk/libc.a(stdio_stdio_format.c.o)
INTC                0x3c              /usr/share/fxsdk/libgint.a(core_modules.c.o)
thetra_x            0x8               build.fx/renderer.o
bopti_v2            0x4               /usr/share/fxsdk/libgint.a(bopti_bopti_internals.c.o)
thetra_y            0x8               build.fx/renderer.o
thetra_z            0x8               build.fx/renderer.o
gint                0xc               /usr/share/fxsdk/libgint.a(core_init_quit.c.o)
TMU                 0x14              /usr/share/fxsdk/libgint.a(core_modules.c.o)
RTC                 0xc               /usr/share/fxsdk/libgint.a(core_modules.c.o)
bopti_v1            0x4               /usr/share/fxsdk/libgint.a(bopti_bopti_internals.c.o)
bopti_vram          0x4               /usr/share/fxsdk/libgint.a(bopti_bopti_internals.c.o)
event_queue         0x300             /usr/share/fxsdk/libgint.a(events_event_push.c.o)

Memory Configuration

Name             Origin             Length             Attributes
rom              0x0000000000300200 0x0000000000080000
ram              0x0000000008100000 0x0000000000002000
realram          0x000000008800d000 0x0000000000003000
*default*        0x0000000000000000 0xffffffffffffffff

Linker script and memory map

LOAD build.fx/mathutils.o
LOAD build.fx/renderer.o
LOAD build.fx/game.o
LOAD build.fx/main.o
LOAD build.fx/assets_font_island.bmp.o
LOAD build.fx/assets_title.bmp.o
LOAD /home/jberben/Casio/sh3eb-elf-2.32-8.3.0/lib/gcc/sh3eb-elf/8.3.0/../../../../sh3eb-elf/lib/libm.a
LOAD /usr/share/fxsdk/libfx.a
LOAD /usr/share/fxsdk/libgint.a
LOAD /usr/share/fxsdk/libc.a
LOAD /home/jberben/Casio/sh3eb-elf-2.32-8.3.0/lib/gcc/sh3eb-elf/8.3.0/libgcc.a

.text           0x0000000000300200     0xdee8
 *(.pretext.entry)
 .pretext.entry
                0x0000000000300200      0x1c0 /usr/share/fxsdk/libgint.a(init_crt0.c.o)
                0x0000000000300200                _start
 *(.pretext)
                0x00000000003003c0                _bctors = ABSOLUTE (.)
 *(.ctors)
 .ctors         0x00000000003003c0        0x4 /usr/share/fxsdk/libgint.a(gray_gray_engine.c.o)
 .ctors         0x00000000003003c4        0x4 /usr/share/fxsdk/libgint.a(keyboard_keyboard_core.c.o)
                0x00000000003003c8                _ectors = ABSOLUTE (.)
                0x00000000003003c8                _bdtors = ABSOLUTE (.)
 *(.dtors)
 .dtors         0x00000000003003c8        0x4 /usr/share/fxsdk/libgint.a(gray_gray_engine.c.o)
 .dtors         0x00000000003003cc        0x4 /usr/share/fxsdk/libgint.a(keyboard_keyboard_core.c.o)
                0x00000000003003d0                _edtors = ABSOLUTE (.)
 *(.text)
 .text          0x00000000003003d0     0x30fc build.fx/mathutils.o
                0x00000000003003d0                _mysqrt
                0x000000000030059c                _get_pdistance
                0x000000000030069c                _get_v2distance
                0x0000000000300794                _get_v3distance
                0x00000000003008f4                _max
                0x0000000000300950                _min
                0x00000000003009ac                _clamp
                0x0000000000300a08                _interpolate
                0x0000000000300ab4                _process_scan_line
                0x0000000000300d00                _fill_triangle
                0x0000000000301434                _vector3_add
                0x00000000003014ec                _vector3_subtract
                0x00000000003015a4                _vector3_multiply
                0x000000000030165c                _vector3_smultiply
                0x00000000003016fc                _vector3_divide
                0x00000000003017b4                _vector3_sdivide
                0x0000000000301854                _vector3_length
                0x00000000003018d8                _vector3_normalize
                0x00000000003019d4                _vector3_dot
                0x0000000000301a94                _vector3_scalar_product
                0x0000000000301b54                _vector3_cross
                0x0000000000301cf4                _vector3_project
                0x0000000000301e04                _vector2_add
                0x0000000000301e8c                _vector2_subtract
                0x0000000000301f14                _vector2_multiply
                0x0000000000301f9c                _vector2_divide
                0x0000000000302024                _vector2_magnitude
                0x00000000003020c0                _vector2_normalize
                0x000000000030218c                _vector2_dot
                0x000000000030221c                _vector2_cross
                0x0000000000302284                _vector2_project
                0x0000000000302340                _make_identity_matrix
                0x00000000003023a0                _make_xrot_matrix
                0x000000000030247c                _make_yrot_matrix
                0x0000000000302558                _make_zrot_matrix
                0x0000000000302634                _make_matrix_translation
                0x00000000003026f0                _make_matrix_projection
                0x00000000003028d0                _m4x4_mul
                0x0000000000302b00                _m4x4_lookat
                0x0000000000302e98                _m4x4_speedyinverse
                0x0000000000303200                _vector3_isect_plane
 .text          0x00000000003034cc     0x2668 build.fx/renderer.o
                0x00000000003034cc                _get_colour
                0x0000000000304020                _draw_line
                0x00000000003043ac                _lcd_hline
                0x000000000030449c                _fillTriangleslope
                0x0000000000304d00                _initializeRenderer
                0x0000000000304e30                _renderMesh
 .text          0x0000000000305b34      0x88c build.fx/game.o
                0x00000000003060da                _initializeGame
                0x0000000000306130                _updateGame
 .text          0x00000000003063c0      0x8ec build.fx/main.o
                0x00000000003063c0                _main
                0x000000000030650c                _draw_menu
                0x00000000003065cc                _menu_tooltip
                0x00000000003066bc                _menu_select
                0x0000000000306728                _reset_kboard_rr
                0x000000000030674c                _render_cube
                0x00000000003067c0                _load_file
                0x0000000000306ae0                _loading_bar
                0x0000000000306bf4                _render_misc
 .text          0x0000000000306cac       0xb0 /home/jberben/Casio/sh3eb-elf-2.32-8.3.0/lib/gcc/sh3eb-elf/8.3.0/../../../../sh3eb-elf/lib/libm.a(lib_a-s_cos.o)
                0x0000000000306cac                _cos
 .text          0x0000000000306d5c        0xc /home/jberben/Casio/sh3eb-elf-2.32-8.3.0/lib/gcc/sh3eb-elf/8.3.0/../../../../sh3eb-elf/lib/libm.a(lib_a-s_fabs.o)
                0x0000000000306d5c                _fabs
 .text          0x0000000000306d68       0xb4 /home/jberben/Casio/sh3eb-elf-2.32-8.3.0/lib/gcc/sh3eb-elf/8.3.0/../../../../sh3eb-elf/lib/libm.a(lib_a-s_sin.o)
                0x0000000000306d68                _sin
 .text          0x0000000000306e1c       0x6c /home/jberben/Casio/sh3eb-elf-2.32-8.3.0/lib/gcc/sh3eb-elf/8.3.0/../../../../sh3eb-elf/lib/libm.a(lib_a-s_tan.o)
                0x0000000000306e1c                _tan
 .text          0x0000000000306e88      0x444 /home/jberben/Casio/sh3eb-elf-2.32-8.3.0/lib/gcc/sh3eb-elf/8.3.0/../../../../sh3eb-elf/lib/libm.a(lib_a-e_rem_pio2.o)
                0x0000000000306e88                ___ieee754_rem_pio2
 .text          0x00000000003072cc      0x1c8 /home/jberben/Casio/sh3eb-elf-2.32-8.3.0/lib/gcc/sh3eb-elf/8.3.0/../../../../sh3eb-elf/lib/libm.a(lib_a-k_cos.o)
                0x00000000003072cc                ___kernel_cos
 .text          0x0000000000307494      0x7f8 /home/jberben/Casio/sh3eb-elf-2.32-8.3.0/lib/gcc/sh3eb-elf/8.3.0/../../../../sh3eb-elf/lib/libm.a(lib_a-k_rem_pio2.o)
                0x0000000000307494                ___kernel_rem_pio2
 .text          0x0000000000307c8c      0x1a4 /home/jberben/Casio/sh3eb-elf-2.32-8.3.0/lib/gcc/sh3eb-elf/8.3.0/../../../../sh3eb-elf/lib/libm.a(lib_a-k_sin.o)
                0x0000000000307c8c                ___kernel_sin
 .text          0x0000000000307e30      0x3f4 /home/jberben/Casio/sh3eb-elf-2.32-8.3.0/lib/gcc/sh3eb-elf/8.3.0/../../../../sh3eb-elf/lib/libm.a(lib_a-k_tan.o)
                0x0000000000307e30                ___kernel_tan
 .text          0x0000000000308224      0x144 /home/jberben/Casio/sh3eb-elf-2.32-8.3.0/lib/gcc/sh3eb-elf/8.3.0/../../../../sh3eb-elf/lib/libm.a(lib_a-s_floor.o)
                0x0000000000308224                _floor
 .text          0x0000000000308368      0x138 /home/jberben/Casio/sh3eb-elf-2.32-8.3.0/lib/gcc/sh3eb-elf/8.3.0/../../../../sh3eb-elf/lib/libm.a(lib_a-s_scalbn.o)
                0x0000000000308368                _scalbn
 .text          0x00000000003084a0      0x198 /usr/share/fxsdk/libgint.a(bopti_dimage.c.o)
                0x00000000003084a0                _dimage_part
                0x0000000000308618                _dimage
 .text          0x0000000000308638      0x348 /usr/share/fxsdk/libgint.a(clock_clock.c.o)
                0x000000000030870c                _clock_setting
                0x00000000003087a4                _clock_config
                0x00000000003087c0                _sleep
                0x00000000003087c6                _sleep_ms
                0x0000000000308810                _sleep_us
                0x0000000000308868                _clock_measure
                0x0000000000308968                _clock_measure_end
 .text          0x0000000000308980      0x230 /usr/share/fxsdk/libgint.a(core_modules.c.o)
                0x0000000000308980                _mod_init
 .text          0x0000000000308bb0       0x68 /usr/share/fxsdk/libgint.a(core_mpu.c.o)
                0x0000000000308bb0                _getMPU
 .text          0x0000000000308c18       0x80 /usr/share/fxsdk/libgint.a(display_getMasks.c.o)
                0x0000000000308c18                _getMasks
 .text          0x0000000000308c98      0x10c /usr/share/fxsdk/libgint.a(display_drect.c.o)
                0x0000000000308c98                _drect
 .text          0x0000000000308da4       0x2c /usr/share/fxsdk/libgint.a(display_display_vram.c.o)
                0x0000000000308da4                _display_getLocalVRAM
                0x0000000000308db0                _display_getCurrentVRAM
                0x0000000000308dbc                _display_useVRAM
 .text          0x0000000000308dd0       0x64 /usr/share/fxsdk/libgint.a(display_adjustRectangle.c.o)
                0x0000000000308dd0                _adjustRectangle
 .text          0x0000000000308e34       0x40 /usr/share/fxsdk/libgint.a(display_dclear.c.o)
                0x0000000000308e34                _dclear
 .text          0x0000000000308e74       0x58 /usr/share/fxsdk/libgint.a(display_dpixel.c.o)
                0x0000000000308e74                _dpixel
 .text          0x0000000000308ecc       0x14 /usr/share/fxsdk/libgint.a(display_dupdate.c.o)
                0x0000000000308ecc                _dupdate
 .text          0x0000000000308ee0      0x214 /usr/share/fxsdk/libgint.a(display_dline.c.o)
                0x0000000000308ee0                _dline
 .text          0x00000000003090f4      0x1a8 /usr/share/fxsdk/libgint.a(gray_gray_engine.c.o)
                0x00000000003090f4                _gray_interrupt
                0x000000000030913c                _gray_start
                0x00000000003091d8                _gray_stop
                0x000000000030920c                _gray_setDelays
                0x0000000000309218                _gray_runs
                0x0000000000309224                _gray_lightVRAM
                0x000000000030923c                _gray_darkVRAM
                0x0000000000309258                _gray_currentVRAM
                0x0000000000309270                _gray_getDelays
                0x000000000030928c                _gupdate
 .text          0x000000000030929c       0x58 /usr/share/fxsdk/libgint.a(gray_gclear.c.o)
                0x000000000030929c                _gclear
 .text          0x00000000003092f4      0x1a0 /usr/share/fxsdk/libgint.a(gray_grect.c.o)
                0x00000000003092f4                _grect
 .text          0x0000000000309494       0x64 /usr/share/fxsdk/libgint.a(init_crt0.c.o)
                0x0000000000309494                _abort
                0x00000000003094b8                _exit
                0x00000000003094d0                _atexit
 .text          0x00000000003094f8      0x1ac /usr/share/fxsdk/libgint.a(init_util.c.o)
                0x00000000003094f8                _init_version
                0x0000000000309598                _init_stage
                0x00000000003095c8                _init_halt
                0x00000000003095dc                _print_dec
                0x0000000000309644                _print_hex
 .text          0x00000000003096a4      0x1cc /usr/share/fxsdk/libgint.a(keyboard_getkey.c.o)
                0x00000000003096a4                _getkey_opt
                0x0000000000309864                _getkey
 .text          0x0000000000309870       0x38 /usr/share/fxsdk/libgint.a(keyboard_key_type.c.o)
                0x0000000000309870                _key_type
 .text          0x00000000003098a8      0x184 /usr/share/fxsdk/libgint.a(keyboard_keyboard_core.c.o)
                0x00000000003098a8                _keyboard_interrupt
                0x00000000003099e4                _keyboard_setAnalysisDelay
                0x0000000000309a00                _keyboard_setRepeatRate
                0x0000000000309a20                _keyboard_stateBuffer
 .text          0x0000000000309a2c       0x20 /usr/share/fxsdk/libgint.a(mmu_pseudoTLBInit.c.o)
                0x0000000000309a2c                _mmu_pseudoTLBInit
 .text          0x0000000000309a4c      0x1c4 /usr/share/fxsdk/libgint.a(rtc_rtc_callback.c.o)
                0x0000000000309a94                _rtc_cb_add
                0x0000000000309afc                _rtc_cb_end
                0x0000000000309b34                _rtc_cb_edit
                0x0000000000309b78                _rtc_cb_interrupt
 .text          0x0000000000309c10       0x7c /usr/share/fxsdk/libgint.a(screen_screen_display.c.o)
                0x0000000000309c10                _screen_display
 .text          0x0000000000309c8c       0x6c /usr/share/fxsdk/libgint.a(screen_screen_backlight.c.o)
                0x0000000000309c8c                _screen_setBacklight
                0x0000000000309cc8                _screen_toggleBacklight
 .text          0x0000000000309cf8       0x40 /usr/share/fxsdk/libgint.a(tales_dprint.c.o)
                0x0000000000309cf8                _dprint
 .text          0x0000000000309d38       0x10 /usr/share/fxsdk/libgint.a(tales_dtext.c.o)
                0x0000000000309d38                _dtext
 .text          0x0000000000309d48       0x1c /usr/share/fxsdk/libgint.a(tales_tales_configuration.c.o)
                0x0000000000309d48                _text_configure
 .text          0x0000000000309d64      0x194 /usr/share/fxsdk/libgint.a(timer_common_api.c.o)
                0x0000000000309d64                _timer_attach
                0x0000000000309d70                _timer_start
                0x0000000000309dc0                _timer_stop
                0x0000000000309e20                _timer_callback_event
                0x0000000000309ea4                _timer_interrupt
 .text          0x0000000000309ef8      0x2dc /usr/share/fxsdk/libgint.a(timer_virtual_timers.c.o)
                0x0000000000309fa8                _timer_create
                0x0000000000309ff8                _vtimer_updateOne
                0x000000000030a030                _vtimer_updateAll
                0x000000000030a0ac                _timer_reload
                0x000000000030a0cc                _timer_destroy
                0x000000000030a0dc                _vtimer_interrupt
 .text          0x000000000030a1d4       0x9c /usr/share/fxsdk/libgint.a(timer_hardware_timers.c.o)
                0x000000000030a1d4                _htimer_setup
                0x000000000030a258                _htimer_reload
 .text          0x000000000030a270      0x45c /usr/share/fxsdk/libgint.a(bopti_bopti_internals.c.o)
                0x000000000030a270                _bopti_end_get1
                0x000000000030a27a                _bopti_end_get2
                0x000000000030a284                _bopti_op_mono
                0x000000000030a2c4                _bopti_op_gray
                0x000000000030a33c                _bopti_grid_a32
                0x000000000030a3ae                _bopti_grid
                0x000000000030a49c                _bopti_end_nover
                0x000000000030a518                _bopti_end
                0x000000000030a5b4                _bopti
                0x000000000030a658                _getStructure
 .text          0x000000000030a6cc      0x19c /usr/share/fxsdk/libgint.a(core_init_quit.c.o)
                0x000000000030a73c                _gint_init
                0x000000000030a7d4                _gint_quit
                0x000000000030a7ec                _gint_switch
 .text          0x000000000030a868      0x178 /usr/share/fxsdk/libgint.a(core_gint.c.o)
                0x000000000030a868                _gint_install
                0x000000000030a880                _gint_uninstall
                0x000000000030a89c                _gint_reg
                0x000000000030a8bc                _gint_invoke
 .text          0x000000000030a9e0      0x1fc /usr/share/fxsdk/libgint.a(core_gint_sh7305.c.o)
                0x000000000030a9e0                _gint_reg_7305
                0x000000000030a9f8                _gint_save_7305
                0x000000000030aaac                _gint_lock_and_setup_7305
                0x000000000030ab18                _gint_restore_and_unlock_7305
 *fill*         0x000000000030abdc        0x4 
 .text          0x000000000030abe0       0xf0 /usr/share/fxsdk/libgint.a(core_syscalls.s.o)
                0x000000000030abe0                ___malloc
                0x000000000030abec                ___free
                0x000000000030abf8                ___realloc
                0x000000000030ac04                ___get_os_version
                0x000000000030ac10                ___system_menu
                0x000000000030ac74                _BFile_Remove
                0x000000000030ac80                _BFile_Create
                0x000000000030ac8c                _BFile_Open
                0x000000000030ac98                _BFile_Close
                0x000000000030aca4                _BFile_Write
                0x000000000030acb0                _BFile_Read
 .text          0x000000000030acd0       0x40 /usr/share/fxsdk/libgint.a(core_gint_vbr.s.o)
                0x000000000030acd0                _gint_getvbr
                0x000000000030acd4                _gint_setvbr
 .text          0x000000000030ad10       0x90 /usr/share/fxsdk/libgint.a(events_event_get.c.o)
                0x000000000030ad10                _pollevent
                0x000000000030ad6c                _waitevent
 .text          0x000000000030ada0       0x5c /usr/share/fxsdk/libgint.a(events_event_push.c.o)
                0x000000000030ada0                _event_push
 .text          0x000000000030adfc       0x58 /usr/share/fxsdk/libgint.a(keyboard_key_char.c.o)
                0x000000000030adfc                _key_char
 .text          0x000000000030ae54      0x1a8 /usr/share/fxsdk/libgint.a(keyboard_keyboard_sh7305.c.o)
                0x000000000030ae98                _keyboard_updateState_7305
 .text          0x000000000030affc      0x114 /usr/share/fxsdk/libgint.a(keyboard_keyboard_sh7705.c.o)
                0x000000000030b008                _keyboard_updateState_7705
 .text          0x000000000030b110       0x26 /usr/share/fxsdk/libgint.a(keyboard_key_id.c.o)
                0x000000000030b110                _key_id
 *fill*         0x000000000030b136        0x2 
 .text          0x000000000030b138      0x3dc /usr/share/fxsdk/libgint.a(tales_tales_internals.c.o)
                0x000000000030b138                _getCharacterIndex
                0x000000000030b250                _operate_mono
                0x000000000030b32c                _update
                0x000000000030b3e2                _render
 .text          0x000000000030b514        0x0 /usr/share/fxsdk/libgint.a(core_vbr_space.c.o)
 .text          0x000000000030b514       0x18 /usr/share/fxsdk/libgint.a(core_interrupts.c.o)
                0x000000000030b514                _inth_timer_underflow
                0x000000000030b520                _inth_rtc_periodic
 .text          0x000000000030b52c      0x428 /usr/share/fxsdk/libgint.a(core_gint_sh7705.c.o)
                0x000000000030b52c                _gint_reg_7705
                0x000000000030b544                _gint_save_7705
                0x000000000030b6a4                _gint_lock_and_setup_7705
                0x000000000030b7f0                _gint_restore_and_unlock_7705
 .text          0x000000000030b954      0x27c /usr/share/fxsdk/libgint.a(core_exceptions.c.o)
                0x000000000030bacc                _exch_address_error
                0x000000000030baec                _exch_tlb_protection_violation
                0x000000000030bb0c                _exch_tlb_invalid
                0x000000000030bb2c                _exch_illegal_instruction
                0x000000000030bb48                _exch_illegal_slot
                0x000000000030bb64                _exch_user_break
                0x000000000030bb7c                _exch_initial_page_write
                0x000000000030bb94                _exch_trap
                0x000000000030bb98                _exch_dma_address
                0x000000000030bbb0                _exch_tlb_miss
 .text          0x000000000030bbd0       0x6c /usr/share/fxsdk/libgint.a(core_interrupt_maps_7705.c.o)
                0x000000000030bbd0                _gint_map_7705
 .text          0x000000000030bc3c       0x20 /usr/share/fxsdk/libgint.a(rtc_rtc_interrupt.c.o)
                0x000000000030bc3c                _rtc_periodic_interrupt
 .text          0x000000000030bc5c       0x40 /usr/share/fxsdk/libgint.a(core_interrupt_maps_7305.c.o)
                0x000000000030bc5c                _gint_map_7305
 .text          0x000000000030bc9c        0x0 /usr/share/fxsdk/libc.a(ctype_ctype_classes.c.o)
 .text          0x000000000030bc9c        0xe /usr/share/fxsdk/libc.a(math_math_qdiv.c.o)
                0x000000000030bc9c                _qdiv
 .text          0x000000000030bcaa       0x4e /usr/share/fxsdk/libc.a(setjmp_setjmp.s.o)
                0x000000000030bcaa                _setjmp
                0x000000000030bcd0                _longjmp
 .text          0x000000000030bcf8      0x708 /usr/share/fxsdk/libc.a(stdio_stdio_format.c.o)
                0x000000000030be84                ___printf
 .text          0x000000000030c400       0x14 /usr/share/fxsdk/libc.a(stdlib_free.c.o)
                0x000000000030c400                _free
 .text          0x000000000030c414       0x10 /usr/share/fxsdk/libc.a(string_strlen.c.o)
                0x000000000030c414                _strlen
 .text          0x000000000030c424       0x76 /usr/share/fxsdk/libc.a(string_memset.c.o)
                0x000000000030c424                _memset
 .text          0x000000000030c49a       0x14 /usr/share/fxsdk/libc.a(string_strchr.c.o)
                0x000000000030c49a                _strchr
 *fill*         0x000000000030c4ae        0x2 
 .text          0x000000000030c4b0       0x78 /home/jberben/Casio/sh3eb-elf-2.32-8.3.0/lib/gcc/sh3eb-elf/8.3.0/libgcc.a(_movmem.o)
                0x000000000030c4b0                ___movstr
                0x000000000030c4b0                ___movmem
                0x000000000030c4e4                ___movmemSI64
                0x000000000030c4e4                ___movstrSI64
                0x000000000030c4e8                ___movstrSI60
                0x000000000030c4e8                ___movmemSI60
                0x000000000030c4ec                ___movmemSI56
                0x000000000030c4ec                ___movstrSI56
                0x000000000030c4f0                ___movstrSI52
                0x000000000030c4f0                ___movmemSI52
                0x000000000030c4f4                ___movstrSI48
                0x000000000030c4f4                ___movmemSI48
                0x000000000030c4f8                ___movstrSI44
                0x000000000030c4f8                ___movmemSI44
                0x000000000030c4fc                ___movstrSI40
                0x000000000030c4fc                ___movmemSI40
                0x000000000030c500                ___movstrSI36
                0x000000000030c500                ___movmemSI36
                0x000000000030c504                ___movmemSI32
                0x000000000030c504                ___movstrSI32
                0x000000000030c508                ___movmemSI28
                0x000000000030c508                ___movstrSI28
                0x000000000030c50c                ___movstrSI24
                0x000000000030c50c                ___movmemSI24
                0x000000000030c510                ___movmemSI20
                0x000000000030c510                ___movstrSI20
                0x000000000030c514                ___movstrSI16
                0x000000000030c514                ___movmemSI16
                0x000000000030c518                ___movmemSI12
                0x000000000030c518                ___movstrSI12
                0x000000000030c51c                ___movmemSI8
                0x000000000030c51c                ___movstrSI8
                0x000000000030c520                ___movmemSI4
                0x000000000030c520                ___movstrSI4
 .text          0x000000000030c528       0xa0 /home/jberben/Casio/sh3eb-elf-2.32-8.3.0/lib/gcc/sh3eb-elf/8.3.0/libgcc.a(_sdivsi3.o)
                0x000000000030c528                ___sdivsi3
 .text          0x000000000030c5c8      0x1ec /home/jberben/Casio/sh3eb-elf-2.32-8.3.0/lib/gcc/sh3eb-elf/8.3.0/libgcc.a(_udivdi3.o)
                0x000000000030c5c8                ___udivdi3
 .text          0x000000000030c7b4      0x330 /home/jberben/Casio/sh3eb-elf-2.32-8.3.0/lib/gcc/sh3eb-elf/8.3.0/libgcc.a(_addsub_df.o)
                0x000000000030ca40                ___adddf3
                0x000000000030ca90                ___subdf3
 .text          0x000000000030cae4      0x208 /home/jberben/Casio/sh3eb-elf-2.32-8.3.0/lib/gcc/sh3eb-elf/8.3.0/libgcc.a(_mul_df.o)
                0x000000000030cae4                ___muldf3
 .text          0x000000000030ccec      0x130 /home/jberben/Casio/sh3eb-elf-2.32-8.3.0/lib/gcc/sh3eb-elf/8.3.0/libgcc.a(_div_df.o)
                0x000000000030ccec                ___divdf3
 .text          0x000000000030ce1c       0x58 /home/jberben/Casio/sh3eb-elf-2.32-8.3.0/lib/gcc/sh3eb-elf/8.3.0/libgcc.a(_eq_df.o)
                0x000000000030ce1c                ___eqdf2
 .text          0x000000000030ce74       0x58 /home/jberben/Casio/sh3eb-elf-2.32-8.3.0/lib/gcc/sh3eb-elf/8.3.0/libgcc.a(_ne_df.o)
                0x000000000030ce74                ___nedf2
 .text          0x000000000030cecc       0x50 /home/jberben/Casio/sh3eb-elf-2.32-8.3.0/lib/gcc/sh3eb-elf/8.3.0/libgcc.a(_gt_df.o)
                0x000000000030cecc                ___gtdf2
 .text          0x000000000030cf1c       0x50 /home/jberben/Casio/sh3eb-elf-2.32-8.3.0/lib/gcc/sh3eb-elf/8.3.0/libgcc.a(_ge_df.o)
                0x000000000030cf1c                ___gedf2
 .text          0x000000000030cf6c       0x58 /home/jberben/Casio/sh3eb-elf-2.32-8.3.0/lib/gcc/sh3eb-elf/8.3.0/libgcc.a(_lt_df.o)
                0x000000000030cf6c                ___ltdf2
 .text          0x000000000030cfc4       0x58 /home/jberben/Casio/sh3eb-elf-2.32-8.3.0/lib/gcc/sh3eb-elf/8.3.0/libgcc.a(_le_df.o)
                0x000000000030cfc4                ___ledf2
 .text          0x000000000030d01c       0x98 /home/jberben/Casio/sh3eb-elf-2.32-8.3.0/lib/gcc/sh3eb-elf/8.3.0/libgcc.a(_si_to_df.o)
                0x000000000030d01c                ___floatsidf
 .text          0x000000000030d0b4       0x94 /home/jberben/Casio/sh3eb-elf-2.32-8.3.0/lib/gcc/sh3eb-elf/8.3.0/libgcc.a(_df_to_si.o)
                0x000000000030d0b4                ___fixdfsi
 .text          0x000000000030d148        0x0 /home/jberben/Casio/sh3eb-elf-2.32-8.3.0/lib/gcc/sh3eb-elf/8.3.0/libgcc.a(_thenan_df.o)
 .text          0x000000000030d148       0x6c /home/jberben/Casio/sh3eb-elf-2.32-8.3.0/lib/gcc/sh3eb-elf/8.3.0/libgcc.a(_udivsi3.o)
                0x000000000030d16a                ___udivsi3
 *fill*         0x000000000030d1b4        0x4 
 .text          0x000000000030d1b8       0x60 /home/jberben/Casio/sh3eb-elf-2.32-8.3.0/lib/gcc/sh3eb-elf/8.3.0/libgcc.a(_udiv_qrnnd_16.o)
                0x000000000030d1b8                ___udiv_qrnnd_16
 .text          0x000000000030d218        0x0 /home/jberben/Casio/sh3eb-elf-2.32-8.3.0/lib/gcc/sh3eb-elf/8.3.0/libgcc.a(_clz.o)
 .text          0x000000000030d218       0x58 /home/jberben/Casio/sh3eb-elf-2.32-8.3.0/lib/gcc/sh3eb-elf/8.3.0/libgcc.a(_clzsi2.o)
                0x000000000030d218                ___clzsi2
 .text          0x000000000030d270      0x25c /home/jberben/Casio/sh3eb-elf-2.32-8.3.0/lib/gcc/sh3eb-elf/8.3.0/libgcc.a(_pack_df.o)
                0x000000000030d270                ___pack_d
 .text          0x000000000030d4cc       0xcc /home/jberben/Casio/sh3eb-elf-2.32-8.3.0/lib/gcc/sh3eb-elf/8.3.0/libgcc.a(_unpack_df.o)
                0x000000000030d4cc                ___unpack_d
 .text          0x000000000030d598       0xc8 /home/jberben/Casio/sh3eb-elf-2.32-8.3.0/lib/gcc/sh3eb-elf/8.3.0/libgcc.a(_fpcmp_parts_df.o)
                0x000000000030d598                ___fpcmp_parts_d
 *(.text.*)
 .text.startup  0x000000000030d660       0x34 /usr/share/fxsdk/libgint.a(gray_gray_engine.c.o)
 .text.exit     0x000000000030d694       0x28 /usr/share/fxsdk/libgint.a(gray_gray_engine.c.o)
 .text.startup  0x000000000030d6bc       0x50 /usr/share/fxsdk/libgint.a(keyboard_keyboard_core.c.o)
                0x000000000030d6bc                _keyboard_init
 .text.exit     0x000000000030d70c       0x20 /usr/share/fxsdk/libgint.a(keyboard_keyboard_core.c.o)
                0x000000000030d70c                _keyboard_quit
 *(C P)
 P              0x000000000030d72c       0xbe /usr/share/fxsdk/libfx.a(memcpy.robj)
                0x000000000030d72c                _memcpy
 *fill*         0x000000000030d7ea        0x2 
 P              0x000000000030d7ec       0x10 /usr/share/fxsdk/libfx.a(_calloc.robj)
                0x000000000030d7ec                _calloc
 P              0x000000000030d7fc       0x10 /usr/share/fxsdk/libfx.a(_malloc.robj)
                0x000000000030d7fc                _malloc
 P              0x000000000030d80c      0x730 /usr/share/fxsdk/libfx.a(filebios.robj)
                0x000000000030d80c                _BfileMCS_GetFileHandle
                0x000000000030d87a                _Bfile_CloseFile
                0x000000000030d8e8                _BfileMCS_HandleCheck
                0x000000000030d928                _MCSFile_InitAll
                0x000000000030d964                _Bfile_ReadFile
                0x000000000030da4c                _Bfile_WriteFile
                0x000000000030db2a                _Bfile_SeekFile
                0x000000000030db94                _Bfile_OpenMainMemory
                0x000000000030dbd6                _Bfile_OpenFile
                0x000000000030dbdc                _Bfile_GetMediaFree
                0x000000000030dca8                _Bfile_GetFileSize
                0x000000000030dd22                _Bfile_CreateMainMemory
                0x000000000030dda6                _Bfile_CreateFile
                0x000000000030ddbc                _Bfile_CreateDirectory
                0x000000000030ddc4                _Bfile_RenameMainMemory
                0x000000000030de2e                _Bfile_DeleteMainMemory
                0x000000000030de98                _Bfile_DeleteFile
                0x000000000030ded8                _Bfile_DeleteDirectory
 C              0x000000000030df3c       0x24 /usr/share/fxsdk/libfx.a(filebios.robj)
 P              0x000000000030df60       0x38 /usr/share/fxsdk/libfx.a(__s_mvn.robj)
                0x000000000030df60                __slow_mvn
 P              0x000000000030df98       0x3e /usr/share/fxsdk/libfx.a(strncmp.robj)
                0x000000000030df98                _strncmp
 *fill*         0x000000000030dfd6        0x2 
 P              0x000000000030dfd8       0x10 /usr/share/fxsdk/libfx.a(_Bfile_CloseFile.robj)
                0x000000000030dfd8                _Bfile_CloseFile_OS
 P              0x000000000030dfe8       0x10 /usr/share/fxsdk/libfx.a(_Bfile_CreateEntry.robj)
                0x000000000030dfe8                _Bfile_CreateEntry
 P              0x000000000030dff8       0x10 /usr/share/fxsdk/libfx.a(_Bfile_DeleteEntry.robj)
                0x000000000030dff8                _Bfile_DeleteEntry
 P              0x000000000030e008       0x10 /usr/share/fxsdk/libfx.a(_Bfile_GetFileSize.robj)
                0x000000000030e008                _Bfile_GetFileSize_OS
 P              0x000000000030e018       0x10 /usr/share/fxsdk/libfx.a(_Bfile_GetMediaFree.robj)
                0x000000000030e018                _Bfile_GetMediaFree_OS
 P              0x000000000030e028       0x10 /usr/share/fxsdk/libfx.a(_Bfile_OpenFile.robj)
                0x000000000030e028                _Bfile_OpenFile_OS
 P              0x000000000030e038       0x10 /usr/share/fxsdk/libfx.a(_Bfile_ReadFile.robj)
                0x000000000030e038                _Bfile_ReadFile_OS
 P              0x000000000030e048       0x10 /usr/share/fxsdk/libfx.a(_Bfile_SeekFile.robj)
                0x000000000030e048                _Bfile_SeekFile_OS
 P              0x000000000030e058       0x10 /usr/share/fxsdk/libfx.a(_Bfile_WriteFile.robj)
                0x000000000030e058                _Bfile_WriteFile_OS
 P              0x000000000030e068       0x10 /usr/share/fxsdk/libfx.a(_BMCSRenameVariable.robj)
                0x000000000030e068                _BMCSRenameVariable
 P              0x000000000030e078       0x10 /usr/share/fxsdk/libfx.a(_GetAppName.robj)
                0x000000000030e078                _GetAppName
 P              0x000000000030e088       0x10 /usr/share/fxsdk/libfx.a(_MCSDelVar2.robj)
                0x000000000030e088                _MCSDelVar2
 P              0x000000000030e098       0x10 /usr/share/fxsdk/libfx.a(_MCSGetCapa.robj)
                0x000000000030e098                _MCSGetCapa
 P              0x000000000030e0a8       0x10 /usr/share/fxsdk/libfx.a(_MCSGetData1.robj)
                0x000000000030e0a8                _MCSGetData1
 P              0x000000000030e0b8       0x10 /usr/share/fxsdk/libfx.a(_MCSGetDlen2.robj)
                0x000000000030e0b8                _MCSGetDlen2
 P              0x000000000030e0c8       0x10 /usr/share/fxsdk/libfx.a(_MCSOvwDat2.robj)
                0x000000000030e0c8                _MCSOvwDat2
 P              0x000000000030e0d8       0x10 /usr/share/fxsdk/libfx.a(_MCSPutVar2.robj)
                0x000000000030e0d8                _MCSPutVar2

.rodata         0x000000000030e0e8      0xfbc
 *(.rodata.fxconv)
 .rodata.fxconv
                0x000000000030e0e8      0x370 build.fx/assets_font_island.bmp.o
                0x000000000030e0e8                _assets_font_island
                0x000000000030e458                _assets_font_island_end
 .rodata.fxconv
                0x000000000030e458      0x184 build.fx/assets_title.bmp.o
                0x000000000030e458                _assets_title
                0x000000000030e5dc                _assets_title_end
 .rodata.fxconv
                0x000000000030e5dc      0x444 /usr/share/fxsdk/libgint.a(display_font_system.bmp.o)
                0x000000000030e5dc                _gint_font_system
                0x000000000030ea20                _gint_font_system_end
 *(.rodata.paradox)
 *(.rodata)
 .rodata        0x000000000030ea20      0x154 build.fx/main.o
 .rodata        0x000000000030eb74      0x188 /home/jberben/Casio/sh3eb-elf-2.32-8.3.0/lib/gcc/sh3eb-elf/8.3.0/../../../../sh3eb-elf/lib/libm.a(lib_a-e_rem_pio2.o)
 .rodata        0x000000000030ecfc       0x50 /home/jberben/Casio/sh3eb-elf-2.32-8.3.0/lib/gcc/sh3eb-elf/8.3.0/../../../../sh3eb-elf/lib/libm.a(lib_a-k_rem_pio2.o)
 .rodata        0x000000000030ed4c       0x1c /usr/share/fxsdk/libgint.a(rtc_rtc_callback.c.o)
 .rodata        0x000000000030ed68       0x14 /usr/share/fxsdk/libgint.a(core_gint_sh7305.c.o)
 .rodata        0x000000000030ed7c       0x6e /usr/share/fxsdk/libgint.a(keyboard_key_char.c.o)
 *fill*         0x000000000030edea        0x2 
 .rodata        0x000000000030edec       0x14 /usr/share/fxsdk/libgint.a(core_gint_sh7705.c.o)
 .rodata        0x000000000030ee00       0x44 /usr/share/fxsdk/libgint.a(core_interrupt_maps_7705.c.o)
 .rodata        0x000000000030ee44       0x40 /usr/share/fxsdk/libgint.a(core_interrupt_maps_7305.c.o)
 .rodata        0x000000000030ee84       0x14 /home/jberben/Casio/sh3eb-elf-2.32-8.3.0/lib/gcc/sh3eb-elf/8.3.0/libgcc.a(_thenan_df.o)
                0x000000000030ee84                ___thenan_df
 .rodata        0x000000000030ee98      0x100 /home/jberben/Casio/sh3eb-elf-2.32-8.3.0/lib/gcc/sh3eb-elf/8.3.0/libgcc.a(_clz.o)
                0x000000000030ee98                ___clz_tab
                0x000000000030ef98                . = ALIGN (0x4)
 *(.rodata.*)
 .rodata.str1.4
                0x000000000030ef98        0xe /usr/share/fxsdk/libgint.a(init_util.c.o)
 *fill*         0x000000000030efa6        0x2 
 .rodata.str1.4
                0x000000000030efa8       0xd9 /usr/share/fxsdk/libgint.a(core_exceptions.c.o)
 *fill*         0x000000000030f081        0x3 
 .rodata.str1.4
                0x000000000030f084       0x20 /usr/share/fxsdk/libc.a(stdio_stdio_format.c.o)
                0x000000000030f0a4                _romdata = ALIGN (0x4)

.bss            0x0000000008100000      0x8c0
                0x0000000008100000                _bbss = ABSOLUTE (.)
                0x00000000000008c0                _sbss = ABSOLUTE (SIZEOF (.bss))
 *(.bss)
 .bss           0x0000000008100000        0x0 build.fx/mathutils.o
 .bss           0x0000000008100000       0xc0 build.fx/renderer.o
 .bss           0x00000000081000c0        0x4 build.fx/game.o
 .bss           0x00000000081000c4        0x5 build.fx/main.o
 .bss           0x00000000081000c9        0x0 /home/jberben/Casio/sh3eb-elf-2.32-8.3.0/lib/gcc/sh3eb-elf/8.3.0/../../../../sh3eb-elf/lib/libm.a(lib_a-s_cos.o)
 .bss           0x00000000081000c9        0x0 /home/jberben/Casio/sh3eb-elf-2.32-8.3.0/lib/gcc/sh3eb-elf/8.3.0/../../../../sh3eb-elf/lib/libm.a(lib_a-s_fabs.o)
 .bss           0x00000000081000c9        0x0 /home/jberben/Casio/sh3eb-elf-2.32-8.3.0/lib/gcc/sh3eb-elf/8.3.0/../../../../sh3eb-elf/lib/libm.a(lib_a-s_sin.o)
 .bss           0x00000000081000c9        0x0 /home/jberben/Casio/sh3eb-elf-2.32-8.3.0/lib/gcc/sh3eb-elf/8.3.0/../../../../sh3eb-elf/lib/libm.a(lib_a-s_tan.o)
 .bss           0x00000000081000c9        0x0 /home/jberben/Casio/sh3eb-elf-2.32-8.3.0/lib/gcc/sh3eb-elf/8.3.0/../../../../sh3eb-elf/lib/libm.a(lib_a-e_rem_pio2.o)
 .bss           0x00000000081000c9        0x0 /home/jberben/Casio/sh3eb-elf-2.32-8.3.0/lib/gcc/sh3eb-elf/8.3.0/../../../../sh3eb-elf/lib/libm.a(lib_a-k_cos.o)
 .bss           0x00000000081000c9        0x0 /home/jberben/Casio/sh3eb-elf-2.32-8.3.0/lib/gcc/sh3eb-elf/8.3.0/../../../../sh3eb-elf/lib/libm.a(lib_a-k_rem_pio2.o)
 .bss           0x00000000081000c9        0x0 /home/jberben/Casio/sh3eb-elf-2.32-8.3.0/lib/gcc/sh3eb-elf/8.3.0/../../../../sh3eb-elf/lib/libm.a(lib_a-k_sin.o)
 .bss           0x00000000081000c9        0x0 /home/jberben/Casio/sh3eb-elf-2.32-8.3.0/lib/gcc/sh3eb-elf/8.3.0/../../../../sh3eb-elf/lib/libm.a(lib_a-k_tan.o)
 .bss           0x00000000081000c9        0x0 /home/jberben/Casio/sh3eb-elf-2.32-8.3.0/lib/gcc/sh3eb-elf/8.3.0/../../../../sh3eb-elf/lib/libm.a(lib_a-s_floor.o)
 .bss           0x00000000081000c9        0x0 /home/jberben/Casio/sh3eb-elf-2.32-8.3.0/lib/gcc/sh3eb-elf/8.3.0/../../../../sh3eb-elf/lib/libm.a(lib_a-s_scalbn.o)
 .bss           0x00000000081000c9        0x0 /usr/share/fxsdk/libgint.a(bopti_dimage.c.o)
 *fill*         0x00000000081000c9        0x3 
 .bss           0x00000000081000cc        0x8 /usr/share/fxsdk/libgint.a(clock_clock.c.o)
 .bss           0x00000000081000d4        0x0 /usr/share/fxsdk/libgint.a(core_modules.c.o)
 .bss           0x00000000081000d4        0x0 /usr/share/fxsdk/libgint.a(core_mpu.c.o)
 .bss           0x00000000081000d4        0x0 /usr/share/fxsdk/libgint.a(display_getMasks.c.o)
 .bss           0x00000000081000d4        0x0 /usr/share/fxsdk/libgint.a(display_drect.c.o)
 .bss           0x00000000081000d4        0x0 /usr/share/fxsdk/libgint.a(display_display_vram.c.o)
 .bss           0x00000000081000d4        0x0 /usr/share/fxsdk/libgint.a(display_adjustRectangle.c.o)
 .bss           0x00000000081000d4        0x0 /usr/share/fxsdk/libgint.a(display_dclear.c.o)
 .bss           0x00000000081000d4        0x0 /usr/share/fxsdk/libgint.a(display_dpixel.c.o)
 .bss           0x00000000081000d4        0x0 /usr/share/fxsdk/libgint.a(display_dupdate.c.o)
 .bss           0x00000000081000d4        0x0 /usr/share/fxsdk/libgint.a(display_dline.c.o)
 .bss           0x00000000081000d4       0x24 /usr/share/fxsdk/libgint.a(gray_gray_engine.c.o)
 .bss           0x00000000081000f8        0x0 /usr/share/fxsdk/libgint.a(gray_gclear.c.o)
 .bss           0x00000000081000f8        0x0 /usr/share/fxsdk/libgint.a(gray_grect.c.o)
 .bss           0x00000000081000f8       0x84 /usr/share/fxsdk/libgint.a(init_crt0.c.o)
 .bss           0x000000000810017c        0xe /usr/share/fxsdk/libgint.a(init_util.c.o)
 .bss           0x000000000810018a        0x0 /usr/share/fxsdk/libgint.a(keyboard_getkey.c.o)
 .bss           0x000000000810018a        0x0 /usr/share/fxsdk/libgint.a(keyboard_key_type.c.o)
 *fill*         0x000000000810018a        0x2 
 .bss           0x000000000810018c       0x1e /usr/share/fxsdk/libgint.a(keyboard_keyboard_core.c.o)
                0x000000000810018c                _vtimer
                0x0000000008100190                _last_time
                0x0000000008100194                _last_repeats
                0x0000000008100198                _last_key
                0x000000000810019c                _interrupt_flag
                0x00000000081001a0                _keyboard_state
 .bss           0x00000000081001aa        0x0 /usr/share/fxsdk/libgint.a(mmu_pseudoTLBInit.c.o)
 *fill*         0x00000000081001aa        0x2 
 .bss           0x00000000081001ac       0x58 /usr/share/fxsdk/libgint.a(rtc_rtc_callback.c.o)
                0x00000000081001ac                _cb_array
 .bss           0x0000000008100204        0x0 /usr/share/fxsdk/libgint.a(screen_screen_display.c.o)
 .bss           0x0000000008100204        0x0 /usr/share/fxsdk/libgint.a(screen_screen_backlight.c.o)
 .bss           0x0000000008100204        0x0 /usr/share/fxsdk/libgint.a(tales_dprint.c.o)
 .bss           0x0000000008100204        0x0 /usr/share/fxsdk/libgint.a(tales_dtext.c.o)
 .bss           0x0000000008100204        0x0 /usr/share/fxsdk/libgint.a(tales_tales_configuration.c.o)
 .bss           0x0000000008100204        0x0 /usr/share/fxsdk/libgint.a(timer_common_api.c.o)
 .bss           0x0000000008100204      0x148 /usr/share/fxsdk/libgint.a(timer_virtual_timers.c.o)
                0x0000000008100204                _vtimers
 .bss           0x000000000810034c       0x3c /usr/share/fxsdk/libgint.a(timer_hardware_timers.c.o)
                0x000000000810034c                _htimers
 .bss           0x0000000008100388        0x0 /usr/share/fxsdk/libgint.a(bopti_bopti_internals.c.o)
 .bss           0x0000000008100388       0x98 /usr/share/fxsdk/libgint.a(core_init_quit.c.o)
 .bss           0x0000000008100420        0x0 /usr/share/fxsdk/libgint.a(core_gint.c.o)
 .bss           0x0000000008100420        0x0 /usr/share/fxsdk/libgint.a(core_gint_sh7305.c.o)
 .bss           0x0000000008100420        0x0 /usr/share/fxsdk/libgint.a(core_syscalls.s.o)
 .bss           0x0000000008100420        0x0 /usr/share/fxsdk/libgint.a(core_gint_vbr.s.o)
 .bss           0x0000000008100420        0x0 /usr/share/fxsdk/libgint.a(events_event_get.c.o)
 .bss           0x0000000008100420        0x8 /usr/share/fxsdk/libgint.a(events_event_push.c.o)
                0x0000000008100420                _queue_size
                0x0000000008100424                _queue_start
 .bss           0x0000000008100428        0x0 /usr/share/fxsdk/libgint.a(keyboard_key_char.c.o)
 .bss           0x0000000008100428        0x0 /usr/share/fxsdk/libgint.a(keyboard_keyboard_sh7305.c.o)
 .bss           0x0000000008100428        0x0 /usr/share/fxsdk/libgint.a(keyboard_keyboard_sh7705.c.o)
 .bss           0x0000000008100428        0x0 /usr/share/fxsdk/libgint.a(keyboard_key_id.c.o)
 .bss           0x0000000008100428        0x0 /usr/share/fxsdk/libgint.a(tales_tales_internals.c.o)
 .bss           0x0000000008100428        0x0 /usr/share/fxsdk/libgint.a(core_vbr_space.c.o)
 .bss           0x0000000008100428        0x0 /usr/share/fxsdk/libgint.a(core_interrupts.c.o)
 .bss           0x0000000008100428        0x0 /usr/share/fxsdk/libgint.a(core_gint_sh7705.c.o)
 .bss           0x0000000008100428        0x0 /usr/share/fxsdk/libgint.a(core_exceptions.c.o)
 .bss           0x0000000008100428        0x0 /usr/share/fxsdk/libgint.a(core_interrupt_maps_7705.c.o)
 .bss           0x0000000008100428        0x0 /usr/share/fxsdk/libgint.a(rtc_rtc_interrupt.c.o)
 .bss           0x0000000008100428        0x0 /usr/share/fxsdk/libgint.a(core_interrupt_maps_7305.c.o)
 .bss           0x0000000008100428        0x0 /usr/share/fxsdk/libc.a(ctype_ctype_classes.c.o)
 .bss           0x0000000008100428        0x0 /usr/share/fxsdk/libc.a(math_math_qdiv.c.o)
 .bss           0x0000000008100428        0x0 /usr/share/fxsdk/libc.a(setjmp_setjmp.s.o)
 .bss           0x0000000008100428        0xc /usr/share/fxsdk/libc.a(stdio_stdio_format.c.o)
 .bss           0x0000000008100434        0x0 /usr/share/fxsdk/libc.a(stdlib_free.c.o)
 .bss           0x0000000008100434        0x0 /usr/share/fxsdk/libc.a(string_strlen.c.o)
 .bss           0x0000000008100434        0x0 /usr/share/fxsdk/libc.a(string_memset.c.o)
 .bss           0x0000000008100434        0x0 /usr/share/fxsdk/libc.a(string_strchr.c.o)
 .bss           0x0000000008100434        0x0 /home/jberben/Casio/sh3eb-elf-2.32-8.3.0/lib/gcc/sh3eb-elf/8.3.0/libgcc.a(_movmem.o)
 .bss           0x0000000008100434        0x0 /home/jberben/Casio/sh3eb-elf-2.32-8.3.0/lib/gcc/sh3eb-elf/8.3.0/libgcc.a(_sdivsi3.o)
 .bss           0x0000000008100434        0x0 /home/jberben/Casio/sh3eb-elf-2.32-8.3.0/lib/gcc/sh3eb-elf/8.3.0/libgcc.a(_udivdi3.o)
 .bss           0x0000000008100434        0x0 /home/jberben/Casio/sh3eb-elf-2.32-8.3.0/lib/gcc/sh3eb-elf/8.3.0/libgcc.a(_addsub_df.o)
 .bss           0x0000000008100434        0x0 /home/jberben/Casio/sh3eb-elf-2.32-8.3.0/lib/gcc/sh3eb-elf/8.3.0/libgcc.a(_mul_df.o)
 .bss           0x0000000008100434        0x0 /home/jberben/Casio/sh3eb-elf-2.32-8.3.0/lib/gcc/sh3eb-elf/8.3.0/libgcc.a(_div_df.o)
 .bss           0x0000000008100434        0x0 /home/jberben/Casio/sh3eb-elf-2.32-8.3.0/lib/gcc/sh3eb-elf/8.3.0/libgcc.a(_eq_df.o)
 .bss           0x0000000008100434        0x0 /home/jberben/Casio/sh3eb-elf-2.32-8.3.0/lib/gcc/sh3eb-elf/8.3.0/libgcc.a(_ne_df.o)
 .bss           0x0000000008100434        0x0 /home/jberben/Casio/sh3eb-elf-2.32-8.3.0/lib/gcc/sh3eb-elf/8.3.0/libgcc.a(_gt_df.o)
 .bss           0x0000000008100434        0x0 /home/jberben/Casio/sh3eb-elf-2.32-8.3.0/lib/gcc/sh3eb-elf/8.3.0/libgcc.a(_ge_df.o)
 .bss           0x0000000008100434        0x0 /home/jberben/Casio/sh3eb-elf-2.32-8.3.0/lib/gcc/sh3eb-elf/8.3.0/libgcc.a(_lt_df.o)
 .bss           0x0000000008100434        0x0 /home/jberben/Casio/sh3eb-elf-2.32-8.3.0/lib/gcc/sh3eb-elf/8.3.0/libgcc.a(_le_df.o)
 .bss           0x0000000008100434        0x0 /home/jberben/Casio/sh3eb-elf-2.32-8.3.0/lib/gcc/sh3eb-elf/8.3.0/libgcc.a(_si_to_df.o)
 .bss           0x0000000008100434        0x0 /home/jberben/Casio/sh3eb-elf-2.32-8.3.0/lib/gcc/sh3eb-elf/8.3.0/libgcc.a(_df_to_si.o)
 .bss           0x0000000008100434        0x0 /home/jberben/Casio/sh3eb-elf-2.32-8.3.0/lib/gcc/sh3eb-elf/8.3.0/libgcc.a(_thenan_df.o)
 .bss           0x0000000008100434        0x0 /home/jberben/Casio/sh3eb-elf-2.32-8.3.0/lib/gcc/sh3eb-elf/8.3.0/libgcc.a(_udivsi3.o)
 .bss           0x0000000008100434        0x0 /home/jberben/Casio/sh3eb-elf-2.32-8.3.0/lib/gcc/sh3eb-elf/8.3.0/libgcc.a(_udiv_qrnnd_16.o)
 .bss           0x0000000008100434        0x0 /home/jberben/Casio/sh3eb-elf-2.32-8.3.0/lib/gcc/sh3eb-elf/8.3.0/libgcc.a(_clz.o)
 .bss           0x0000000008100434        0x0 /home/jberben/Casio/sh3eb-elf-2.32-8.3.0/lib/gcc/sh3eb-elf/8.3.0/libgcc.a(_clzsi2.o)
 .bss           0x0000000008100434        0x0 /home/jberben/Casio/sh3eb-elf-2.32-8.3.0/lib/gcc/sh3eb-elf/8.3.0/libgcc.a(_pack_df.o)
 .bss           0x0000000008100434        0x0 /home/jberben/Casio/sh3eb-elf-2.32-8.3.0/lib/gcc/sh3eb-elf/8.3.0/libgcc.a(_unpack_df.o)
 .bss           0x0000000008100434        0x0 /home/jberben/Casio/sh3eb-elf-2.32-8.3.0/lib/gcc/sh3eb-elf/8.3.0/libgcc.a(_fpcmp_parts_df.o)
 *(B R)
                0x0000000008100434                . = ALIGN (0x4)
 COMMON         0x0000000008100434       0x18 build.fx/renderer.o
                0x0000000008100434                _thetra_x
                0x000000000810043c                _thetra_y
                0x0000000008100444                _thetra_z
 COMMON         0x000000000810044c       0x5c /usr/share/fxsdk/libgint.a(core_modules.c.o)
                0x000000000810044c                _INTC
                0x0000000008100488                _TMU
                0x000000000810049c                _RTC
 COMMON         0x00000000081004a8        0xc /usr/share/fxsdk/libgint.a(bopti_bopti_internals.c.o)
                0x00000000081004a8                _bopti_v2
                0x00000000081004ac                _bopti_v1
                0x00000000081004b0                _bopti_vram
 COMMON         0x00000000081004b4        0xc /usr/share/fxsdk/libgint.a(core_init_quit.c.o)
                0x00000000081004b4                _gint
 COMMON         0x00000000081004c0      0x300 /usr/share/fxsdk/libgint.a(events_event_push.c.o)
                0x00000000081004c0                _event_queue
 COMMON         0x00000000081007c0      0x100 /usr/share/fxsdk/libc.a(stdio_stdio_format.c.o)
                0x00000000081007c0                ___stdio_buffer

.data           0x00000000081008c0      0x2f0 load address 0x000000000030f0a4
                0x00000000081008c0                _bdata = ABSOLUTE (.)
                0x00000000000002f0                _sdata = ABSOLUTE (SIZEOF (.data))
 *(.data)
 .data          0x00000000081008c0        0x0 build.fx/mathutils.o
 .data          0x00000000081008c0       0x18 build.fx/renderer.o
 .data          0x00000000081008d8        0x0 build.fx/game.o
 .data          0x00000000081008d8        0x1 build.fx/main.o
 .data          0x00000000081008d9        0x0 /home/jberben/Casio/sh3eb-elf-2.32-8.3.0/lib/gcc/sh3eb-elf/8.3.0/../../../../sh3eb-elf/lib/libm.a(lib_a-s_cos.o)
 .data          0x00000000081008d9        0x0 /home/jberben/Casio/sh3eb-elf-2.32-8.3.0/lib/gcc/sh3eb-elf/8.3.0/../../../../sh3eb-elf/lib/libm.a(lib_a-s_fabs.o)
 .data          0x00000000081008d9        0x0 /home/jberben/Casio/sh3eb-elf-2.32-8.3.0/lib/gcc/sh3eb-elf/8.3.0/../../../../sh3eb-elf/lib/libm.a(lib_a-s_sin.o)
 .data          0x00000000081008d9        0x0 /home/jberben/Casio/sh3eb-elf-2.32-8.3.0/lib/gcc/sh3eb-elf/8.3.0/../../../../sh3eb-elf/lib/libm.a(lib_a-s_tan.o)
 .data          0x00000000081008d9        0x0 /home/jberben/Casio/sh3eb-elf-2.32-8.3.0/lib/gcc/sh3eb-elf/8.3.0/../../../../sh3eb-elf/lib/libm.a(lib_a-e_rem_pio2.o)
 .data          0x00000000081008d9        0x0 /home/jberben/Casio/sh3eb-elf-2.32-8.3.0/lib/gcc/sh3eb-elf/8.3.0/../../../../sh3eb-elf/lib/libm.a(lib_a-k_cos.o)
 .data          0x00000000081008d9        0x0 /home/jberben/Casio/sh3eb-elf-2.32-8.3.0/lib/gcc/sh3eb-elf/8.3.0/../../../../sh3eb-elf/lib/libm.a(lib_a-k_rem_pio2.o)
 .data          0x00000000081008d9        0x0 /home/jberben/Casio/sh3eb-elf-2.32-8.3.0/lib/gcc/sh3eb-elf/8.3.0/../../../../sh3eb-elf/lib/libm.a(lib_a-k_sin.o)
 .data          0x00000000081008d9        0x0 /home/jberben/Casio/sh3eb-elf-2.32-8.3.0/lib/gcc/sh3eb-elf/8.3.0/../../../../sh3eb-elf/lib/libm.a(lib_a-k_tan.o)
 .data          0x00000000081008d9        0x0 /home/jberben/Casio/sh3eb-elf-2.32-8.3.0/lib/gcc/sh3eb-elf/8.3.0/../../../../sh3eb-elf/lib/libm.a(lib_a-s_floor.o)
 .data          0x00000000081008d9        0x0 /home/jberben/Casio/sh3eb-elf-2.32-8.3.0/lib/gcc/sh3eb-elf/8.3.0/../../../../sh3eb-elf/lib/libm.a(lib_a-s_scalbn.o)
 .data          0x00000000081008d9        0x0 /usr/share/fxsdk/libgint.a(bopti_dimage.c.o)
 *fill*         0x00000000081008d9        0x3 
 .data          0x00000000081008dc       0x28 /usr/share/fxsdk/libgint.a(clock_clock.c.o)
 .data          0x0000000008100904        0x0 /usr/share/fxsdk/libgint.a(core_modules.c.o)
 .data          0x0000000008100904        0x0 /usr/share/fxsdk/libgint.a(core_mpu.c.o)
 .data          0x0000000008100904        0x0 /usr/share/fxsdk/libgint.a(display_getMasks.c.o)
 .data          0x0000000008100904        0x0 /usr/share/fxsdk/libgint.a(display_drect.c.o)
 .data          0x0000000008100904        0x0 /usr/share/fxsdk/libgint.a(display_display_vram.c.o)
 .data          0x0000000008100904        0x0 /usr/share/fxsdk/libgint.a(display_adjustRectangle.c.o)
 .data          0x0000000008100904        0x0 /usr/share/fxsdk/libgint.a(display_dclear.c.o)
 .data          0x0000000008100904        0x0 /usr/share/fxsdk/libgint.a(display_dpixel.c.o)
 .data          0x0000000008100904        0x0 /usr/share/fxsdk/libgint.a(display_dupdate.c.o)
 .data          0x0000000008100904        0x0 /usr/share/fxsdk/libgint.a(display_dline.c.o)
 .data          0x0000000008100904        0x0 /usr/share/fxsdk/libgint.a(gray_gray_engine.c.o)
 .data          0x0000000008100904        0x0 /usr/share/fxsdk/libgint.a(gray_gclear.c.o)
 .data          0x0000000008100904        0x0 /usr/share/fxsdk/libgint.a(gray_grect.c.o)
 .data          0x0000000008100904        0x4 /usr/share/fxsdk/libgint.a(init_crt0.c.o)
 .data          0x0000000008100908        0x0 /usr/share/fxsdk/libgint.a(init_util.c.o)
 .data          0x0000000008100908        0x0 /usr/share/fxsdk/libgint.a(keyboard_getkey.c.o)
 .data          0x0000000008100908        0x0 /usr/share/fxsdk/libgint.a(keyboard_key_type.c.o)
 .data          0x0000000008100908        0x8 /usr/share/fxsdk/libgint.a(keyboard_keyboard_core.c.o)
                0x0000000008100908                _repeat_next
                0x000000000810090c                _repeat_first
 .data          0x0000000008100910        0x0 /usr/share/fxsdk/libgint.a(mmu_pseudoTLBInit.c.o)
 .data          0x0000000008100910        0x4 /usr/share/fxsdk/libgint.a(rtc_rtc_callback.c.o)
 .data          0x0000000008100914        0x0 /usr/share/fxsdk/libgint.a(screen_screen_display.c.o)
 .data          0x0000000008100914        0x0 /usr/share/fxsdk/libgint.a(screen_screen_backlight.c.o)
 .data          0x0000000008100914        0x0 /usr/share/fxsdk/libgint.a(tales_dprint.c.o)
 .data          0x0000000008100914        0x0 /usr/share/fxsdk/libgint.a(tales_dtext.c.o)
 .data          0x0000000008100914        0x0 /usr/share/fxsdk/libgint.a(tales_tales_configuration.c.o)
 .data          0x0000000008100914        0x0 /usr/share/fxsdk/libgint.a(timer_common_api.c.o)
 .data          0x0000000008100914        0x0 /usr/share/fxsdk/libgint.a(timer_virtual_timers.c.o)
 .data          0x0000000008100914        0x0 /usr/share/fxsdk/libgint.a(timer_hardware_timers.c.o)
 .data          0x0000000008100914        0x0 /usr/share/fxsdk/libgint.a(bopti_bopti_internals.c.o)
 .data          0x0000000008100914        0x0 /usr/share/fxsdk/libgint.a(core_init_quit.c.o)
 .data          0x0000000008100914       0xd8 /usr/share/fxsdk/libgint.a(core_gint.c.o)
                0x0000000008100914                _gint_handlers
 .data          0x00000000081009ec        0x0 /usr/share/fxsdk/libgint.a(core_gint_sh7305.c.o)
 .data          0x00000000081009ec        0x0 /usr/share/fxsdk/libgint.a(core_syscalls.s.o)
 .data          0x00000000081009ec        0x0 /usr/share/fxsdk/libgint.a(core_gint_vbr.s.o)
 .data          0x00000000081009ec        0x0 /usr/share/fxsdk/libgint.a(events_event_get.c.o)
 .data          0x00000000081009ec        0x0 /usr/share/fxsdk/libgint.a(events_event_push.c.o)
 .data          0x00000000081009ec        0x0 /usr/share/fxsdk/libgint.a(keyboard_key_char.c.o)
 .data          0x00000000081009ec        0x0 /usr/share/fxsdk/libgint.a(keyboard_keyboard_sh7305.c.o)
 .data          0x00000000081009ec        0x0 /usr/share/fxsdk/libgint.a(keyboard_keyboard_sh7705.c.o)
 .data          0x00000000081009ec        0x0 /usr/share/fxsdk/libgint.a(keyboard_key_id.c.o)
 .data          0x00000000081009ec        0x0 /usr/share/fxsdk/libgint.a(tales_tales_internals.c.o)
 .data          0x00000000081009ec        0x0 /usr/share/fxsdk/libgint.a(core_vbr_space.c.o)
 .data          0x00000000081009ec        0x0 /usr/share/fxsdk/libgint.a(core_interrupts.c.o)
 .data          0x00000000081009ec        0x0 /usr/share/fxsdk/libgint.a(core_gint_sh7705.c.o)
 .data          0x00000000081009ec        0x0 /usr/share/fxsdk/libgint.a(core_exceptions.c.o)
 .data          0x00000000081009ec       0x60 /usr/share/fxsdk/libgint.a(core_interrupt_maps_7705.c.o)
 .data          0x0000000008100a4c        0x0 /usr/share/fxsdk/libgint.a(rtc_rtc_interrupt.c.o)
 .data          0x0000000008100a4c       0x80 /usr/share/fxsdk/libgint.a(core_interrupt_maps_7305.c.o)
 .data          0x0000000008100acc       0x80 /usr/share/fxsdk/libc.a(ctype_ctype_classes.c.o)
                0x0000000008100acc                _ctype_classes
 .data          0x0000000008100b4c        0x0 /usr/share/fxsdk/libc.a(math_math_qdiv.c.o)
 .data          0x0000000008100b4c        0x0 /usr/share/fxsdk/libc.a(setjmp_setjmp.s.o)
 .data          0x0000000008100b4c        0x0 /usr/share/fxsdk/libc.a(stdio_stdio_format.c.o)
 .data          0x0000000008100b4c        0x0 /usr/share/fxsdk/libc.a(stdlib_free.c.o)
 .data          0x0000000008100b4c        0x0 /usr/share/fxsdk/libc.a(string_strlen.c.o)
 .data          0x0000000008100b4c        0x0 /usr/share/fxsdk/libc.a(string_memset.c.o)
 .data          0x0000000008100b4c        0x0 /usr/share/fxsdk/libc.a(string_strchr.c.o)
 .data          0x0000000008100b4c        0x0 /home/jberben/Casio/sh3eb-elf-2.32-8.3.0/lib/gcc/sh3eb-elf/8.3.0/libgcc.a(_movmem.o)
 .data          0x0000000008100b4c        0x0 /home/jberben/Casio/sh3eb-elf-2.32-8.3.0/lib/gcc/sh3eb-elf/8.3.0/libgcc.a(_sdivsi3.o)
 .data          0x0000000008100b4c        0x0 /home/jberben/Casio/sh3eb-elf-2.32-8.3.0/lib/gcc/sh3eb-elf/8.3.0/libgcc.a(_udivdi3.o)
 .data          0x0000000008100b4c        0x0 /home/jberben/Casio/sh3eb-elf-2.32-8.3.0/lib/gcc/sh3eb-elf/8.3.0/libgcc.a(_addsub_df.o)
 .data          0x0000000008100b4c        0x0 /home/jberben/Casio/sh3eb-elf-2.32-8.3.0/lib/gcc/sh3eb-elf/8.3.0/libgcc.a(_mul_df.o)
 .data          0x0000000008100b4c        0x0 /home/jberben/Casio/sh3eb-elf-2.32-8.3.0/lib/gcc/sh3eb-elf/8.3.0/libgcc.a(_div_df.o)
 .data          0x0000000008100b4c        0x0 /home/jberben/Casio/sh3eb-elf-2.32-8.3.0/lib/gcc/sh3eb-elf/8.3.0/libgcc.a(_eq_df.o)
 .data          0x0000000008100b4c        0x0 /home/jberben/Casio/sh3eb-elf-2.32-8.3.0/lib/gcc/sh3eb-elf/8.3.0/libgcc.a(_ne_df.o)
 .data          0x0000000008100b4c        0x0 /home/jberben/Casio/sh3eb-elf-2.32-8.3.0/lib/gcc/sh3eb-elf/8.3.0/libgcc.a(_gt_df.o)
 .data          0x0000000008100b4c        0x0 /home/jberben/Casio/sh3eb-elf-2.32-8.3.0/lib/gcc/sh3eb-elf/8.3.0/libgcc.a(_ge_df.o)
 .data          0x0000000008100b4c        0x0 /home/jberben/Casio/sh3eb-elf-2.32-8.3.0/lib/gcc/sh3eb-elf/8.3.0/libgcc.a(_lt_df.o)
 .data          0x0000000008100b4c        0x0 /home/jberben/Casio/sh3eb-elf-2.32-8.3.0/lib/gcc/sh3eb-elf/8.3.0/libgcc.a(_le_df.o)
 .data          0x0000000008100b4c        0x0 /home/jberben/Casio/sh3eb-elf-2.32-8.3.0/lib/gcc/sh3eb-elf/8.3.0/libgcc.a(_si_to_df.o)
 .data          0x0000000008100b4c        0x0 /home/jberben/Casio/sh3eb-elf-2.32-8.3.0/lib/gcc/sh3eb-elf/8.3.0/libgcc.a(_df_to_si.o)
 .data          0x0000000008100b4c        0x0 /home/jberben/Casio/sh3eb-elf-2.32-8.3.0/lib/gcc/sh3eb-elf/8.3.0/libgcc.a(_thenan_df.o)
 .data          0x0000000008100b4c        0x0 /home/jberben/Casio/sh3eb-elf-2.32-8.3.0/lib/gcc/sh3eb-elf/8.3.0/libgcc.a(_udivsi3.o)
 .data          0x0000000008100b4c        0x0 /home/jberben/Casio/sh3eb-elf-2.32-8.3.0/lib/gcc/sh3eb-elf/8.3.0/libgcc.a(_udiv_qrnnd_16.o)
 .data          0x0000000008100b4c        0x0 /home/jberben/Casio/sh3eb-elf-2.32-8.3.0/lib/gcc/sh3eb-elf/8.3.0/libgcc.a(_clz.o)
 .data          0x0000000008100b4c        0x0 /home/jberben/Casio/sh3eb-elf-2.32-8.3.0/lib/gcc/sh3eb-elf/8.3.0/libgcc.a(_clzsi2.o)
 .data          0x0000000008100b4c        0x0 /home/jberben/Casio/sh3eb-elf-2.32-8.3.0/lib/gcc/sh3eb-elf/8.3.0/libgcc.a(_pack_df.o)
 .data          0x0000000008100b4c        0x0 /home/jberben/Casio/sh3eb-elf-2.32-8.3.0/lib/gcc/sh3eb-elf/8.3.0/libgcc.a(_unpack_df.o)
 .data          0x0000000008100b4c        0x0 /home/jberben/Casio/sh3eb-elf-2.32-8.3.0/lib/gcc/sh3eb-elf/8.3.0/libgcc.a(_fpcmp_parts_df.o)
 *(.data.*)
 *(D)
 D              0x0000000008100b4c       0x64 /usr/share/fxsdk/libfx.a(filebios.robj)
                0x0000000008100b4c                _MCSpt
                0x0000000008100bb0                . = ALIGN (0x4)

.cc             0x0000000008100bb0       0x84 load address 0x000000000030f394
 *(.eh_frame)
 .eh_frame      0x0000000008100bb0       0x84 /home/jberben/Casio/sh3eb-elf-2.32-8.3.0/lib/gcc/sh3eb-elf/8.3.0/libgcc.a(_udivdi3.o)
 *(.jcr)
                0x0000000008100c34                . = ALIGN (0x4)
                0x000000000030f418                _gint_data = ((_romdata + SIZEOF (.data)) + SIZEOF (.cc))

.gint           0x000000008800d000      0x6e0 load address 0x000000000030f418
                0x000000008800d000                . = ALIGN (0x100)
                0x000000008800d000                _gint_vbr = .
                0x000000008800d000                _bgint = ABSOLUTE (.)
                0x000000008800d100                . = (_gint_vbr + 0x100)
 *fill*         0x000000008800d000      0x100 
 *(.gint.exc)
 .gint.exc      0x000000008800d100       0xe0 /usr/share/fxsdk/libgint.a(core_vbr_space.c.o)
                0x000000008800d100                _gint_exc
                0x000000008800d400                . = (_gint_vbr + 0x400)
 *fill*         0x000000008800d1e0      0x220 
 *(.gint.tlb)
 .gint.tlb      0x000000008800d400       0xe0 /usr/share/fxsdk/libgint.a(core_vbr_space.c.o)
                0x000000008800d400                _gint_tlb
                0x000000008800d600                . = (_gint_vbr + 0x600)
 *fill*         0x000000008800d4e0      0x120 
 *(.gint.int)
 .gint.int      0x000000008800d600       0xe0 /usr/share/fxsdk/libgint.a(core_vbr_space.c.o)
                0x000000008800d600                _gint_int
                0x000000008800d6e0                . = ALIGN (0x4)
                0x000000008800d6e0                _egint = ABSOLUTE (.)

.rela.dyn       0x000000008800d6e0        0x0 load address 0x000000000030faf8
 .rela.text     0x000000008800d6e0        0x0 build.fx/renderer.o
 .relaP         0x000000008800d6e0        0x0 build.fx/renderer.o
 .rela.pretext.entry
                0x000000008800d6e0        0x0 build.fx/renderer.o
 .rela.gint.exc
                0x000000008800d6e0        0x0 build.fx/renderer.o
 .rela.gint.tlb
                0x000000008800d6e0        0x0 build.fx/renderer.o
 .rela.gint.int
                0x000000008800d6e0        0x0 build.fx/renderer.o

.gint_bss       0x000000008800d6e0      0x410 load address 0x000000000030faf8
                0x000000008800d6e0                _bgbss = ABSOLUTE (.)
 *(.gint.bss)
 .gint.bss      0x000000008800d6e0        0x4 /usr/share/fxsdk/libgint.a(core_mpu.c.o)
                0x000000008800d6e0                _MPU_CURRENT
 .gint.bss      0x000000008800d6e4      0x404 /usr/share/fxsdk/libgint.a(display_display_vram.c.o)
                0x000000008800d6e4                _vram
 .gint.bss      0x000000008800dae8        0x8 /usr/share/fxsdk/libgint.a(tales_tales_internals.c.o)
                0x000000008800dae8                _operator
                0x000000008800daec                _font
                0x000000008800daf0                _egbss = ABSOLUTE (.)
OUTPUT(build.fx/rendex.elf elf32-sh)

.comment        0x0000000000000000       0x11
 .comment       0x0000000000000000       0x11 build.fx/mathutils.o
                                         0x12 (size before relaxing)
 .comment       0x0000000000000011       0x12 build.fx/renderer.o
 .comment       0x0000000000000011       0x12 build.fx/game.o
 .comment       0x0000000000000011       0x12 build.fx/main.o
 .comment       0x0000000000000011       0x12 /home/jberben/Casio/sh3eb-elf-2.32-8.3.0/lib/gcc/sh3eb-elf/8.3.0/../../../../sh3eb-elf/lib/libm.a(lib_a-s_cos.o)
 .comment       0x0000000000000011       0x12 /home/jberben/Casio/sh3eb-elf-2.32-8.3.0/lib/gcc/sh3eb-elf/8.3.0/../../../../sh3eb-elf/lib/libm.a(lib_a-s_fabs.o)
 .comment       0x0000000000000011       0x12 /home/jberben/Casio/sh3eb-elf-2.32-8.3.0/lib/gcc/sh3eb-elf/8.3.0/../../../../sh3eb-elf/lib/libm.a(lib_a-s_sin.o)
 .comment       0x0000000000000011       0x12 /home/jberben/Casio/sh3eb-elf-2.32-8.3.0/lib/gcc/sh3eb-elf/8.3.0/../../../../sh3eb-elf/lib/libm.a(lib_a-s_tan.o)
 .comment       0x0000000000000011       0x12 /home/jberben/Casio/sh3eb-elf-2.32-8.3.0/lib/gcc/sh3eb-elf/8.3.0/../../../../sh3eb-elf/lib/libm.a(lib_a-e_rem_pio2.o)
 .comment       0x0000000000000011       0x12 /home/jberben/Casio/sh3eb-elf-2.32-8.3.0/lib/gcc/sh3eb-elf/8.3.0/../../../../sh3eb-elf/lib/libm.a(lib_a-k_cos.o)
 .comment       0x0000000000000011       0x12 /home/jberben/Casio/sh3eb-elf-2.32-8.3.0/lib/gcc/sh3eb-elf/8.3.0/../../../../sh3eb-elf/lib/libm.a(lib_a-k_rem_pio2.o)
 .comment       0x0000000000000011       0x12 /home/jberben/Casio/sh3eb-elf-2.32-8.3.0/lib/gcc/sh3eb-elf/8.3.0/../../../../sh3eb-elf/lib/libm.a(lib_a-k_sin.o)
 .comment       0x0000000000000011       0x12 /home/jberben/Casio/sh3eb-elf-2.32-8.3.0/lib/gcc/sh3eb-elf/8.3.0/../../../../sh3eb-elf/lib/libm.a(lib_a-k_tan.o)
 .comment       0x0000000000000011       0x12 /home/jberben/Casio/sh3eb-elf-2.32-8.3.0/lib/gcc/sh3eb-elf/8.3.0/../../../../sh3eb-elf/lib/libm.a(lib_a-s_floor.o)
 .comment       0x0000000000000011       0x12 /home/jberben/Casio/sh3eb-elf-2.32-8.3.0/lib/gcc/sh3eb-elf/8.3.0/../../../../sh3eb-elf/lib/libm.a(lib_a-s_scalbn.o)
 .comment       0x0000000000000011       0x12 /usr/share/fxsdk/libgint.a(bopti_dimage.c.o)
 .comment       0x0000000000000011       0x12 /usr/share/fxsdk/libgint.a(clock_clock.c.o)
 .comment       0x0000000000000011       0x12 /usr/share/fxsdk/libgint.a(core_modules.c.o)
 .comment       0x0000000000000011       0x12 /usr/share/fxsdk/libgint.a(core_mpu.c.o)
 .comment       0x0000000000000011       0x12 /usr/share/fxsdk/libgint.a(display_getMasks.c.o)
 .comment       0x0000000000000011       0x12 /usr/share/fxsdk/libgint.a(display_drect.c.o)
 .comment       0x0000000000000011       0x12 /usr/share/fxsdk/libgint.a(display_display_vram.c.o)
 .comment       0x0000000000000011       0x12 /usr/share/fxsdk/libgint.a(display_adjustRectangle.c.o)
 .comment       0x0000000000000011       0x12 /usr/share/fxsdk/libgint.a(display_dclear.c.o)
 .comment       0x0000000000000011       0x12 /usr/share/fxsdk/libgint.a(display_dpixel.c.o)
 .comment       0x0000000000000011       0x12 /usr/share/fxsdk/libgint.a(display_dupdate.c.o)
 .comment       0x0000000000000011       0x12 /usr/share/fxsdk/libgint.a(display_dline.c.o)
 .comment       0x0000000000000011       0x12 /usr/share/fxsdk/libgint.a(gray_gray_engine.c.o)
 .comment       0x0000000000000011       0x12 /usr/share/fxsdk/libgint.a(gray_gclear.c.o)
 .comment       0x0000000000000011       0x12 /usr/share/fxsdk/libgint.a(gray_grect.c.o)
 .comment       0x0000000000000011       0x12 /usr/share/fxsdk/libgint.a(init_crt0.c.o)
 .comment       0x0000000000000011       0x12 /usr/share/fxsdk/libgint.a(init_util.c.o)
 .comment       0x0000000000000011       0x12 /usr/share/fxsdk/libgint.a(keyboard_getkey.c.o)
 .comment       0x0000000000000011       0x12 /usr/share/fxsdk/libgint.a(keyboard_key_type.c.o)
 .comment       0x0000000000000011       0x12 /usr/share/fxsdk/libgint.a(keyboard_keyboard_core.c.o)
 .comment       0x0000000000000011       0x12 /usr/share/fxsdk/libgint.a(mmu_pseudoTLBInit.c.o)
 .comment       0x0000000000000011       0x12 /usr/share/fxsdk/libgint.a(rtc_rtc_callback.c.o)
 .comment       0x0000000000000011       0x12 /usr/share/fxsdk/libgint.a(screen_screen_display.c.o)
 .comment       0x0000000000000011       0x12 /usr/share/fxsdk/libgint.a(screen_screen_backlight.c.o)
 .comment       0x0000000000000011       0x12 /usr/share/fxsdk/libgint.a(tales_dprint.c.o)
 .comment       0x0000000000000011       0x12 /usr/share/fxsdk/libgint.a(tales_dtext.c.o)
 .comment       0x0000000000000011       0x12 /usr/share/fxsdk/libgint.a(tales_tales_configuration.c.o)
 .comment       0x0000000000000011       0x12 /usr/share/fxsdk/libgint.a(timer_common_api.c.o)
 .comment       0x0000000000000011       0x12 /usr/share/fxsdk/libgint.a(timer_virtual_timers.c.o)
 .comment       0x0000000000000011       0x12 /usr/share/fxsdk/libgint.a(timer_hardware_timers.c.o)
 .comment       0x0000000000000011       0x12 /usr/share/fxsdk/libgint.a(bopti_bopti_internals.c.o)
 .comment       0x0000000000000011       0x12 /usr/share/fxsdk/libgint.a(core_init_quit.c.o)
 .comment       0x0000000000000011       0x12 /usr/share/fxsdk/libgint.a(core_gint.c.o)
 .comment       0x0000000000000011       0x12 /usr/share/fxsdk/libgint.a(core_gint_sh7305.c.o)
 .comment       0x0000000000000011       0x12 /usr/share/fxsdk/libgint.a(events_event_get.c.o)
 .comment       0x0000000000000011       0x12 /usr/share/fxsdk/libgint.a(events_event_push.c.o)
 .comment       0x0000000000000011       0x12 /usr/share/fxsdk/libgint.a(keyboard_key_char.c.o)
 .comment       0x0000000000000011       0x12 /usr/share/fxsdk/libgint.a(keyboard_keyboard_sh7305.c.o)
 .comment       0x0000000000000011       0x12 /usr/share/fxsdk/libgint.a(keyboard_keyboard_sh7705.c.o)
 .comment       0x0000000000000011       0x12 /usr/share/fxsdk/libgint.a(keyboard_key_id.c.o)
 .comment       0x0000000000000011       0x12 /usr/share/fxsdk/libgint.a(tales_tales_internals.c.o)
 .comment       0x0000000000000011       0x12 /usr/share/fxsdk/libgint.a(core_vbr_space.c.o)
 .comment       0x0000000000000011       0x12 /usr/share/fxsdk/libgint.a(core_interrupts.c.o)
 .comment       0x0000000000000011       0x12 /usr/share/fxsdk/libgint.a(core_gint_sh7705.c.o)
 .comment       0x0000000000000011       0x12 /usr/share/fxsdk/libgint.a(core_exceptions.c.o)
 .comment       0x0000000000000011       0x12 /usr/share/fxsdk/libgint.a(core_interrupt_maps_7705.c.o)
 .comment       0x0000000000000011       0x12 /usr/share/fxsdk/libgint.a(rtc_rtc_interrupt.c.o)
 .comment       0x0000000000000011       0x12 /usr/share/fxsdk/libgint.a(core_interrupt_maps_7305.c.o)
 .comment       0x0000000000000011       0x12 /usr/share/fxsdk/libc.a(ctype_ctype_classes.c.o)
 .comment       0x0000000000000011       0x12 /usr/share/fxsdk/libc.a(math_math_qdiv.c.o)
 .comment       0x0000000000000011       0x12 /usr/share/fxsdk/libc.a(stdio_stdio_format.c.o)
 .comment       0x0000000000000011       0x12 /usr/share/fxsdk/libc.a(stdlib_free.c.o)
 .comment       0x0000000000000011       0x12 /usr/share/fxsdk/libc.a(string_strlen.c.o)
 .comment       0x0000000000000011       0x12 /usr/share/fxsdk/libc.a(string_memset.c.o)
 .comment       0x0000000000000011       0x12 /usr/share/fxsdk/libc.a(string_strchr.c.o)
 .comment       0x0000000000000011       0x12 /home/jberben/Casio/sh3eb-elf-2.32-8.3.0/lib/gcc/sh3eb-elf/8.3.0/libgcc.a(_udivdi3.o)
 .comment       0x0000000000000011       0x12 /home/jberben/Casio/sh3eb-elf-2.32-8.3.0/lib/gcc/sh3eb-elf/8.3.0/libgcc.a(_addsub_df.o)
 .comment       0x0000000000000011       0x12 /home/jberben/Casio/sh3eb-elf-2.32-8.3.0/lib/gcc/sh3eb-elf/8.3.0/libgcc.a(_mul_df.o)
 .comment       0x0000000000000011       0x12 /home/jberben/Casio/sh3eb-elf-2.32-8.3.0/lib/gcc/sh3eb-elf/8.3.0/libgcc.a(_div_df.o)
 .comment       0x0000000000000011       0x12 /home/jberben/Casio/sh3eb-elf-2.32-8.3.0/lib/gcc/sh3eb-elf/8.3.0/libgcc.a(_eq_df.o)
 .comment       0x0000000000000011       0x12 /home/jberben/Casio/sh3eb-elf-2.32-8.3.0/lib/gcc/sh3eb-elf/8.3.0/libgcc.a(_ne_df.o)
 .comment       0x0000000000000011       0x12 /home/jberben/Casio/sh3eb-elf-2.32-8.3.0/lib/gcc/sh3eb-elf/8.3.0/libgcc.a(_gt_df.o)
 .comment       0x0000000000000011       0x12 /home/jberben/Casio/sh3eb-elf-2.32-8.3.0/lib/gcc/sh3eb-elf/8.3.0/libgcc.a(_ge_df.o)
 .comment       0x0000000000000011       0x12 /home/jberben/Casio/sh3eb-elf-2.32-8.3.0/lib/gcc/sh3eb-elf/8.3.0/libgcc.a(_lt_df.o)
 .comment       0x0000000000000011       0x12 /home/jberben/Casio/sh3eb-elf-2.32-8.3.0/lib/gcc/sh3eb-elf/8.3.0/libgcc.a(_le_df.o)
 .comment       0x0000000000000011       0x12 /home/jberben/Casio/sh3eb-elf-2.32-8.3.0/lib/gcc/sh3eb-elf/8.3.0/libgcc.a(_si_to_df.o)
 .comment       0x0000000000000011       0x12 /home/jberben/Casio/sh3eb-elf-2.32-8.3.0/lib/gcc/sh3eb-elf/8.3.0/libgcc.a(_df_to_si.o)
 .comment       0x0000000000000011       0x12 /home/jberben/Casio/sh3eb-elf-2.32-8.3.0/lib/gcc/sh3eb-elf/8.3.0/libgcc.a(_thenan_df.o)
 .comment       0x0000000000000011       0x12 /home/jberben/Casio/sh3eb-elf-2.32-8.3.0/lib/gcc/sh3eb-elf/8.3.0/libgcc.a(_clz.o)
 .comment       0x0000000000000011       0x12 /home/jberben/Casio/sh3eb-elf-2.32-8.3.0/lib/gcc/sh3eb-elf/8.3.0/libgcc.a(_clzsi2.o)
 .comment       0x0000000000000011       0x12 /home/jberben/Casio/sh3eb-elf-2.32-8.3.0/lib/gcc/sh3eb-elf/8.3.0/libgcc.a(_pack_df.o)
 .comment       0x0000000000000011       0x12 /home/jberben/Casio/sh3eb-elf-2.32-8.3.0/lib/gcc/sh3eb-elf/8.3.0/libgcc.a(_unpack_df.o)
 .comment       0x0000000000000011       0x12 /home/jberben/Casio/sh3eb-elf-2.32-8.3.0/lib/gcc/sh3eb-elf/8.3.0/libgcc.a(_fpcmp_parts_df.o)

$iop            0x0000000000000000      0x89d
 $iop           0x0000000000000000       0x8c /usr/share/fxsdk/libfx.a(memcpy.robj)
 $iop           0x000000000000008c      0x783 /usr/share/fxsdk/libfx.a(filebios.robj)
 $iop           0x000000000000080f       0x8e /usr/share/fxsdk/libfx.a(strncmp.robj)

.debug_info     0x0000000000000000     0xd91a
 .debug_info    0x0000000000000000      0xaba /home/jberben/Casio/sh3eb-elf-2.32-8.3.0/lib/gcc/sh3eb-elf/8.3.0/../../../../sh3eb-elf/lib/libm.a(lib_a-s_cos.o)
 .debug_info    0x0000000000000aba      0xa13 /home/jberben/Casio/sh3eb-elf-2.32-8.3.0/lib/gcc/sh3eb-elf/8.3.0/../../../../sh3eb-elf/lib/libm.a(lib_a-s_fabs.o)
 .debug_info    0x00000000000014cd      0xabe /home/jberben/Casio/sh3eb-elf-2.32-8.3.0/lib/gcc/sh3eb-elf/8.3.0/../../../../sh3eb-elf/lib/libm.a(lib_a-s_sin.o)
 .debug_info    0x0000000000001f8b      0xa88 /home/jberben/Casio/sh3eb-elf-2.32-8.3.0/lib/gcc/sh3eb-elf/8.3.0/../../../../sh3eb-elf/lib/libm.a(lib_a-s_tan.o)
 .debug_info    0x0000000000002a13      0xd86 /home/jberben/Casio/sh3eb-elf-2.32-8.3.0/lib/gcc/sh3eb-elf/8.3.0/../../../../sh3eb-elf/lib/libm.a(lib_a-e_rem_pio2.o)
 .debug_info    0x0000000000003799      0xb9e /home/jberben/Casio/sh3eb-elf-2.32-8.3.0/lib/gcc/sh3eb-elf/8.3.0/../../../../sh3eb-elf/lib/libm.a(lib_a-k_cos.o)
 .debug_info    0x0000000000004337      0xd0d /home/jberben/Casio/sh3eb-elf-2.32-8.3.0/lib/gcc/sh3eb-elf/8.3.0/../../../../sh3eb-elf/lib/libm.a(lib_a-k_rem_pio2.o)
 .debug_info    0x0000000000005044      0xb5e /home/jberben/Casio/sh3eb-elf-2.32-8.3.0/lib/gcc/sh3eb-elf/8.3.0/../../../../sh3eb-elf/lib/libm.a(lib_a-k_sin.o)
 .debug_info    0x0000000000005ba2      0xd62 /home/jberben/Casio/sh3eb-elf-2.32-8.3.0/lib/gcc/sh3eb-elf/8.3.0/../../../../sh3eb-elf/lib/libm.a(lib_a-k_tan.o)
 .debug_info    0x0000000000006904      0xa9d /home/jberben/Casio/sh3eb-elf-2.32-8.3.0/lib/gcc/sh3eb-elf/8.3.0/../../../../sh3eb-elf/lib/libm.a(lib_a-s_floor.o)
 .debug_info    0x00000000000073a1      0xaeb /home/jberben/Casio/sh3eb-elf-2.32-8.3.0/lib/gcc/sh3eb-elf/8.3.0/../../../../sh3eb-elf/lib/libm.a(lib_a-s_scalbn.o)
 .debug_info    0x0000000000007e8c      0x733 /home/jberben/Casio/sh3eb-elf-2.32-8.3.0/lib/gcc/sh3eb-elf/8.3.0/libgcc.a(_udivdi3.o)
 .debug_info    0x00000000000085bf      0x740 /home/jberben/Casio/sh3eb-elf-2.32-8.3.0/lib/gcc/sh3eb-elf/8.3.0/libgcc.a(_addsub_df.o)
 .debug_info    0x0000000000008cff      0x6e9 /home/jberben/Casio/sh3eb-elf-2.32-8.3.0/lib/gcc/sh3eb-elf/8.3.0/libgcc.a(_mul_df.o)
 .debug_info    0x00000000000093e8      0x5e6 /home/jberben/Casio/sh3eb-elf-2.32-8.3.0/lib/gcc/sh3eb-elf/8.3.0/libgcc.a(_div_df.o)
 .debug_info    0x00000000000099ce      0x4f4 /home/jberben/Casio/sh3eb-elf-2.32-8.3.0/lib/gcc/sh3eb-elf/8.3.0/libgcc.a(_eq_df.o)
 .debug_info    0x0000000000009ec2      0x4f4 /home/jberben/Casio/sh3eb-elf-2.32-8.3.0/lib/gcc/sh3eb-elf/8.3.0/libgcc.a(_ne_df.o)
 .debug_info    0x000000000000a3b6      0x4f4 /home/jberben/Casio/sh3eb-elf-2.32-8.3.0/lib/gcc/sh3eb-elf/8.3.0/libgcc.a(_gt_df.o)
 .debug_info    0x000000000000a8aa      0x4f4 /home/jberben/Casio/sh3eb-elf-2.32-8.3.0/lib/gcc/sh3eb-elf/8.3.0/libgcc.a(_ge_df.o)
 .debug_info    0x000000000000ad9e      0x4f4 /home/jberben/Casio/sh3eb-elf-2.32-8.3.0/lib/gcc/sh3eb-elf/8.3.0/libgcc.a(_lt_df.o)
 .debug_info    0x000000000000b292      0x4f4 /home/jberben/Casio/sh3eb-elf-2.32-8.3.0/lib/gcc/sh3eb-elf/8.3.0/libgcc.a(_le_df.o)
 .debug_info    0x000000000000b786      0x494 /home/jberben/Casio/sh3eb-elf-2.32-8.3.0/lib/gcc/sh3eb-elf/8.3.0/libgcc.a(_si_to_df.o)
 .debug_info    0x000000000000bc1a      0x4ce /home/jberben/Casio/sh3eb-elf-2.32-8.3.0/lib/gcc/sh3eb-elf/8.3.0/libgcc.a(_df_to_si.o)
 .debug_info    0x000000000000c0e8      0x391 /home/jberben/Casio/sh3eb-elf-2.32-8.3.0/lib/gcc/sh3eb-elf/8.3.0/libgcc.a(_thenan_df.o)
 .debug_info    0x000000000000c479      0x371 /home/jberben/Casio/sh3eb-elf-2.32-8.3.0/lib/gcc/sh3eb-elf/8.3.0/libgcc.a(_clz.o)
 .debug_info    0x000000000000c7ea      0x3da /home/jberben/Casio/sh3eb-elf-2.32-8.3.0/lib/gcc/sh3eb-elf/8.3.0/libgcc.a(_clzsi2.o)
 .debug_info    0x000000000000cbc4      0x4d4 /home/jberben/Casio/sh3eb-elf-2.32-8.3.0/lib/gcc/sh3eb-elf/8.3.0/libgcc.a(_pack_df.o)
 .debug_info    0x000000000000d098      0x45d /home/jberben/Casio/sh3eb-elf-2.32-8.3.0/lib/gcc/sh3eb-elf/8.3.0/libgcc.a(_unpack_df.o)
 .debug_info    0x000000000000d4f5      0x425 /home/jberben/Casio/sh3eb-elf-2.32-8.3.0/lib/gcc/sh3eb-elf/8.3.0/libgcc.a(_fpcmp_parts_df.o)

.debug_abbrev   0x0000000000000000     0x3afc
 .debug_abbrev  0x0000000000000000      0x2a1 /home/jberben/Casio/sh3eb-elf-2.32-8.3.0/lib/gcc/sh3eb-elf/8.3.0/../../../../sh3eb-elf/lib/libm.a(lib_a-s_cos.o)
 .debug_abbrev  0x00000000000002a1      0x237 /home/jberben/Casio/sh3eb-elf-2.32-8.3.0/lib/gcc/sh3eb-elf/8.3.0/../../../../sh3eb-elf/lib/libm.a(lib_a-s_fabs.o)
 .debug_abbrev  0x00000000000004d8      0x296 /home/jberben/Casio/sh3eb-elf-2.32-8.3.0/lib/gcc/sh3eb-elf/8.3.0/../../../../sh3eb-elf/lib/libm.a(lib_a-s_sin.o)
 .debug_abbrev  0x000000000000076e      0x294 /home/jberben/Casio/sh3eb-elf-2.32-8.3.0/lib/gcc/sh3eb-elf/8.3.0/../../../../sh3eb-elf/lib/libm.a(lib_a-s_tan.o)
 .debug_abbrev  0x0000000000000a02      0x2e1 /home/jberben/Casio/sh3eb-elf-2.32-8.3.0/lib/gcc/sh3eb-elf/8.3.0/../../../../sh3eb-elf/lib/libm.a(lib_a-e_rem_pio2.o)
 .debug_abbrev  0x0000000000000ce3      0x258 /home/jberben/Casio/sh3eb-elf-2.32-8.3.0/lib/gcc/sh3eb-elf/8.3.0/../../../../sh3eb-elf/lib/libm.a(lib_a-k_cos.o)
 .debug_abbrev  0x0000000000000f3b      0x2dd /home/jberben/Casio/sh3eb-elf-2.32-8.3.0/lib/gcc/sh3eb-elf/8.3.0/../../../../sh3eb-elf/lib/libm.a(lib_a-k_rem_pio2.o)
 .debug_abbrev  0x0000000000001218      0x269 /home/jberben/Casio/sh3eb-elf-2.32-8.3.0/lib/gcc/sh3eb-elf/8.3.0/../../../../sh3eb-elf/lib/libm.a(lib_a-k_sin.o)
 .debug_abbrev  0x0000000000001481      0x2ae /home/jberben/Casio/sh3eb-elf-2.32-8.3.0/lib/gcc/sh3eb-elf/8.3.0/../../../../sh3eb-elf/lib/libm.a(lib_a-k_tan.o)
 .debug_abbrev  0x000000000000172f      0x255 /home/jberben/Casio/sh3eb-elf-2.32-8.3.0/lib/gcc/sh3eb-elf/8.3.0/../../../../sh3eb-elf/lib/libm.a(lib_a-s_floor.o)
 .debug_abbrev  0x0000000000001984      0x278 /home/jberben/Casio/sh3eb-elf-2.32-8.3.0/lib/gcc/sh3eb-elf/8.3.0/../../../../sh3eb-elf/lib/libm.a(lib_a-s_scalbn.o)
 .debug_abbrev  0x0000000000001bfc      0x218 /home/jberben/Casio/sh3eb-elf-2.32-8.3.0/lib/gcc/sh3eb-elf/8.3.0/libgcc.a(_udivdi3.o)
 .debug_abbrev  0x0000000000001e14      0x244 /home/jberben/Casio/sh3eb-elf-2.32-8.3.0/lib/gcc/sh3eb-elf/8.3.0/libgcc.a(_addsub_df.o)
 .debug_abbrev  0x0000000000002058      0x27c /home/jberben/Casio/sh3eb-elf-2.32-8.3.0/lib/gcc/sh3eb-elf/8.3.0/libgcc.a(_mul_df.o)
 .debug_abbrev  0x00000000000022d4      0x25c /home/jberben/Casio/sh3eb-elf-2.32-8.3.0/lib/gcc/sh3eb-elf/8.3.0/libgcc.a(_div_df.o)
 .debug_abbrev  0x0000000000002530      0x1b7 /home/jberben/Casio/sh3eb-elf-2.32-8.3.0/lib/gcc/sh3eb-elf/8.3.0/libgcc.a(_eq_df.o)
 .debug_abbrev  0x00000000000026e7      0x1b7 /home/jberben/Casio/sh3eb-elf-2.32-8.3.0/lib/gcc/sh3eb-elf/8.3.0/libgcc.a(_ne_df.o)
 .debug_abbrev  0x000000000000289e      0x1b7 /home/jberben/Casio/sh3eb-elf-2.32-8.3.0/lib/gcc/sh3eb-elf/8.3.0/libgcc.a(_gt_df.o)
 .debug_abbrev  0x0000000000002a55      0x1b7 /home/jberben/Casio/sh3eb-elf-2.32-8.3.0/lib/gcc/sh3eb-elf/8.3.0/libgcc.a(_ge_df.o)
 .debug_abbrev  0x0000000000002c0c      0x1b7 /home/jberben/Casio/sh3eb-elf-2.32-8.3.0/lib/gcc/sh3eb-elf/8.3.0/libgcc.a(_lt_df.o)
 .debug_abbrev  0x0000000000002dc3      0x1b7 /home/jberben/Casio/sh3eb-elf-2.32-8.3.0/lib/gcc/sh3eb-elf/8.3.0/libgcc.a(_le_df.o)
 .debug_abbrev  0x0000000000002f7a      0x1fb /home/jberben/Casio/sh3eb-elf-2.32-8.3.0/lib/gcc/sh3eb-elf/8.3.0/libgcc.a(_si_to_df.o)
 .debug_abbrev  0x0000000000003175      0x1bb /home/jberben/Casio/sh3eb-elf-2.32-8.3.0/lib/gcc/sh3eb-elf/8.3.0/libgcc.a(_df_to_si.o)
 .debug_abbrev  0x0000000000003330      0x11c /home/jberben/Casio/sh3eb-elf-2.32-8.3.0/lib/gcc/sh3eb-elf/8.3.0/libgcc.a(_thenan_df.o)
 .debug_abbrev  0x000000000000344c       0xcf /home/jberben/Casio/sh3eb-elf-2.32-8.3.0/lib/gcc/sh3eb-elf/8.3.0/libgcc.a(_clz.o)
 .debug_abbrev  0x000000000000351b      0x118 /home/jberben/Casio/sh3eb-elf-2.32-8.3.0/lib/gcc/sh3eb-elf/8.3.0/libgcc.a(_clzsi2.o)
 .debug_abbrev  0x0000000000003633      0x1cb /home/jberben/Casio/sh3eb-elf-2.32-8.3.0/lib/gcc/sh3eb-elf/8.3.0/libgcc.a(_pack_df.o)
 .debug_abbrev  0x00000000000037fe      0x18b /home/jberben/Casio/sh3eb-elf-2.32-8.3.0/lib/gcc/sh3eb-elf/8.3.0/libgcc.a(_unpack_df.o)
 .debug_abbrev  0x0000000000003989      0x173 /home/jberben/Casio/sh3eb-elf-2.32-8.3.0/lib/gcc/sh3eb-elf/8.3.0/libgcc.a(_fpcmp_parts_df.o)

.debug_loc      0x0000000000000000     0x394c
 .debug_loc     0x0000000000000000       0xaf /home/jberben/Casio/sh3eb-elf-2.32-8.3.0/lib/gcc/sh3eb-elf/8.3.0/../../../../sh3eb-elf/lib/libm.a(lib_a-s_cos.o)
 .debug_loc     0x00000000000000af       0x40 /home/jberben/Casio/sh3eb-elf-2.32-8.3.0/lib/gcc/sh3eb-elf/8.3.0/../../../../sh3eb-elf/lib/libm.a(lib_a-s_fabs.o)
 .debug_loc     0x00000000000000ef       0xc2 /home/jberben/Casio/sh3eb-elf-2.32-8.3.0/lib/gcc/sh3eb-elf/8.3.0/../../../../sh3eb-elf/lib/libm.a(lib_a-s_sin.o)
 .debug_loc     0x00000000000001b1       0xc2 /home/jberben/Casio/sh3eb-elf-2.32-8.3.0/lib/gcc/sh3eb-elf/8.3.0/../../../../sh3eb-elf/lib/libm.a(lib_a-s_tan.o)
 .debug_loc     0x0000000000000273      0x5df /home/jberben/Casio/sh3eb-elf-2.32-8.3.0/lib/gcc/sh3eb-elf/8.3.0/../../../../sh3eb-elf/lib/libm.a(lib_a-e_rem_pio2.o)
 .debug_loc     0x0000000000000852      0x164 /home/jberben/Casio/sh3eb-elf-2.32-8.3.0/lib/gcc/sh3eb-elf/8.3.0/../../../../sh3eb-elf/lib/libm.a(lib_a-k_cos.o)
 .debug_loc     0x00000000000009b6      0xa7c /home/jberben/Casio/sh3eb-elf-2.32-8.3.0/lib/gcc/sh3eb-elf/8.3.0/../../../../sh3eb-elf/lib/libm.a(lib_a-k_rem_pio2.o)
 .debug_loc     0x0000000000001432      0x138 /home/jberben/Casio/sh3eb-elf-2.32-8.3.0/lib/gcc/sh3eb-elf/8.3.0/../../../../sh3eb-elf/lib/libm.a(lib_a-k_sin.o)
 .debug_loc     0x000000000000156a      0x3f0 /home/jberben/Casio/sh3eb-elf-2.32-8.3.0/lib/gcc/sh3eb-elf/8.3.0/../../../../sh3eb-elf/lib/libm.a(lib_a-k_tan.o)
 .debug_loc     0x000000000000195a      0x25c /home/jberben/Casio/sh3eb-elf-2.32-8.3.0/lib/gcc/sh3eb-elf/8.3.0/../../../../sh3eb-elf/lib/libm.a(lib_a-s_floor.o)
 .debug_loc     0x0000000000001bb6      0x1c5 /home/jberben/Casio/sh3eb-elf-2.32-8.3.0/lib/gcc/sh3eb-elf/8.3.0/../../../../sh3eb-elf/lib/libm.a(lib_a-s_scalbn.o)
 .debug_loc     0x0000000000001d7b      0x6e0 /home/jberben/Casio/sh3eb-elf-2.32-8.3.0/lib/gcc/sh3eb-elf/8.3.0/libgcc.a(_udivdi3.o)
 .debug_loc     0x000000000000245b      0x6f4 /home/jberben/Casio/sh3eb-elf-2.32-8.3.0/lib/gcc/sh3eb-elf/8.3.0/libgcc.a(_addsub_df.o)
 .debug_loc     0x0000000000002b4f      0x4d5 /home/jberben/Casio/sh3eb-elf-2.32-8.3.0/lib/gcc/sh3eb-elf/8.3.0/libgcc.a(_mul_df.o)
 .debug_loc     0x0000000000003024      0x1c0 /home/jberben/Casio/sh3eb-elf-2.32-8.3.0/lib/gcc/sh3eb-elf/8.3.0/libgcc.a(_div_df.o)
 .debug_loc     0x00000000000031e4       0x50 /home/jberben/Casio/sh3eb-elf-2.32-8.3.0/lib/gcc/sh3eb-elf/8.3.0/libgcc.a(_eq_df.o)
 .debug_loc     0x0000000000003234       0x50 /home/jberben/Casio/sh3eb-elf-2.32-8.3.0/lib/gcc/sh3eb-elf/8.3.0/libgcc.a(_ne_df.o)
 .debug_loc     0x0000000000003284       0x50 /home/jberben/Casio/sh3eb-elf-2.32-8.3.0/lib/gcc/sh3eb-elf/8.3.0/libgcc.a(_gt_df.o)
 .debug_loc     0x00000000000032d4       0x50 /home/jberben/Casio/sh3eb-elf-2.32-8.3.0/lib/gcc/sh3eb-elf/8.3.0/libgcc.a(_ge_df.o)
 .debug_loc     0x0000000000003324       0x50 /home/jberben/Casio/sh3eb-elf-2.32-8.3.0/lib/gcc/sh3eb-elf/8.3.0/libgcc.a(_lt_df.o)
 .debug_loc     0x0000000000003374       0x50 /home/jberben/Casio/sh3eb-elf-2.32-8.3.0/lib/gcc/sh3eb-elf/8.3.0/libgcc.a(_le_df.o)
 .debug_loc     0x00000000000033c4       0xd1 /home/jberben/Casio/sh3eb-elf-2.32-8.3.0/lib/gcc/sh3eb-elf/8.3.0/libgcc.a(_si_to_df.o)
 .debug_loc     0x0000000000003495       0x3b /home/jberben/Casio/sh3eb-elf-2.32-8.3.0/lib/gcc/sh3eb-elf/8.3.0/libgcc.a(_df_to_si.o)
 .debug_loc     0x00000000000034d0       0xa6 /home/jberben/Casio/sh3eb-elf-2.32-8.3.0/lib/gcc/sh3eb-elf/8.3.0/libgcc.a(_clzsi2.o)
 .debug_loc     0x0000000000003576      0x321 /home/jberben/Casio/sh3eb-elf-2.32-8.3.0/lib/gcc/sh3eb-elf/8.3.0/libgcc.a(_pack_df.o)
 .debug_loc     0x0000000000003897       0xb5 /home/jberben/Casio/sh3eb-elf-2.32-8.3.0/lib/gcc/sh3eb-elf/8.3.0/libgcc.a(_unpack_df.o)

.debug_aranges  0x0000000000000000      0x390
 .debug_aranges
                0x0000000000000000       0x20 /home/jberben/Casio/sh3eb-elf-2.32-8.3.0/lib/gcc/sh3eb-elf/8.3.0/../../../../sh3eb-elf/lib/libm.a(lib_a-s_cos.o)
 .debug_aranges
                0x0000000000000020       0x20 /home/jberben/Casio/sh3eb-elf-2.32-8.3.0/lib/gcc/sh3eb-elf/8.3.0/../../../../sh3eb-elf/lib/libm.a(lib_a-s_fabs.o)
 .debug_aranges
                0x0000000000000040       0x20 /home/jberben/Casio/sh3eb-elf-2.32-8.3.0/lib/gcc/sh3eb-elf/8.3.0/../../../../sh3eb-elf/lib/libm.a(lib_a-s_sin.o)
 .debug_aranges
                0x0000000000000060       0x20 /home/jberben/Casio/sh3eb-elf-2.32-8.3.0/lib/gcc/sh3eb-elf/8.3.0/../../../../sh3eb-elf/lib/libm.a(lib_a-s_tan.o)
 .debug_aranges
                0x0000000000000080       0x20 /home/jberben/Casio/sh3eb-elf-2.32-8.3.0/lib/gcc/sh3eb-elf/8.3.0/../../../../sh3eb-elf/lib/libm.a(lib_a-e_rem_pio2.o)
 .debug_aranges
                0x00000000000000a0       0x20 /home/jberben/Casio/sh3eb-elf-2.32-8.3.0/lib/gcc/sh3eb-elf/8.3.0/../../../../sh3eb-elf/lib/libm.a(lib_a-k_cos.o)
 .debug_aranges
                0x00000000000000c0       0x20 /home/jberben/Casio/sh3eb-elf-2.32-8.3.0/lib/gcc/sh3eb-elf/8.3.0/../../../../sh3eb-elf/lib/libm.a(lib_a-k_rem_pio2.o)
 .debug_aranges
                0x00000000000000e0       0x20 /home/jberben/Casio/sh3eb-elf-2.32-8.3.0/lib/gcc/sh3eb-elf/8.3.0/../../../../sh3eb-elf/lib/libm.a(lib_a-k_sin.o)
 .debug_aranges
                0x0000000000000100       0x20 /home/jberben/Casio/sh3eb-elf-2.32-8.3.0/lib/gcc/sh3eb-elf/8.3.0/../../../../sh3eb-elf/lib/libm.a(lib_a-k_tan.o)
 .debug_aranges
                0x0000000000000120       0x20 /home/jberben/Casio/sh3eb-elf-2.32-8.3.0/lib/gcc/sh3eb-elf/8.3.0/../../../../sh3eb-elf/lib/libm.a(lib_a-s_floor.o)
 .debug_aranges
                0x0000000000000140       0x20 /home/jberben/Casio/sh3eb-elf-2.32-8.3.0/lib/gcc/sh3eb-elf/8.3.0/../../../../sh3eb-elf/lib/libm.a(lib_a-s_scalbn.o)
 .debug_aranges
                0x0000000000000160       0x20 /home/jberben/Casio/sh3eb-elf-2.32-8.3.0/lib/gcc/sh3eb-elf/8.3.0/libgcc.a(_udivdi3.o)
 .debug_aranges
                0x0000000000000180       0x20 /home/jberben/Casio/sh3eb-elf-2.32-8.3.0/lib/gcc/sh3eb-elf/8.3.0/libgcc.a(_addsub_df.o)
 .debug_aranges
                0x00000000000001a0       0x20 /home/jberben/Casio/sh3eb-elf-2.32-8.3.0/lib/gcc/sh3eb-elf/8.3.0/libgcc.a(_mul_df.o)
 .debug_aranges
                0x00000000000001c0       0x20 /home/jberben/Casio/sh3eb-elf-2.32-8.3.0/lib/gcc/sh3eb-elf/8.3.0/libgcc.a(_div_df.o)
 .debug_aranges
                0x00000000000001e0       0x20 /home/jberben/Casio/sh3eb-elf-2.32-8.3.0/lib/gcc/sh3eb-elf/8.3.0/libgcc.a(_eq_df.o)
 .debug_aranges
                0x0000000000000200       0x20 /home/jberben/Casio/sh3eb-elf-2.32-8.3.0/lib/gcc/sh3eb-elf/8.3.0/libgcc.a(_ne_df.o)
 .debug_aranges
                0x0000000000000220       0x20 /home/jberben/Casio/sh3eb-elf-2.32-8.3.0/lib/gcc/sh3eb-elf/8.3.0/libgcc.a(_gt_df.o)
 .debug_aranges
                0x0000000000000240       0x20 /home/jberben/Casio/sh3eb-elf-2.32-8.3.0/lib/gcc/sh3eb-elf/8.3.0/libgcc.a(_ge_df.o)
 .debug_aranges
                0x0000000000000260       0x20 /home/jberben/Casio/sh3eb-elf-2.32-8.3.0/lib/gcc/sh3eb-elf/8.3.0/libgcc.a(_lt_df.o)
 .debug_aranges
                0x0000000000000280       0x20 /home/jberben/Casio/sh3eb-elf-2.32-8.3.0/lib/gcc/sh3eb-elf/8.3.0/libgcc.a(_le_df.o)
 .debug_aranges
                0x00000000000002a0       0x20 /home/jberben/Casio/sh3eb-elf-2.32-8.3.0/lib/gcc/sh3eb-elf/8.3.0/libgcc.a(_si_to_df.o)
 .debug_aranges
                0x00000000000002c0       0x20 /home/jberben/Casio/sh3eb-elf-2.32-8.3.0/lib/gcc/sh3eb-elf/8.3.0/libgcc.a(_df_to_si.o)
 .debug_aranges
                0x00000000000002e0       0x18 /home/jberben/Casio/sh3eb-elf-2.32-8.3.0/lib/gcc/sh3eb-elf/8.3.0/libgcc.a(_thenan_df.o)
 .debug_aranges
                0x00000000000002f8       0x18 /home/jberben/Casio/sh3eb-elf-2.32-8.3.0/lib/gcc/sh3eb-elf/8.3.0/libgcc.a(_clz.o)
 .debug_aranges
                0x0000000000000310       0x20 /home/jberben/Casio/sh3eb-elf-2.32-8.3.0/lib/gcc/sh3eb-elf/8.3.0/libgcc.a(_clzsi2.o)
 .debug_aranges
                0x0000000000000330       0x20 /home/jberben/Casio/sh3eb-elf-2.32-8.3.0/lib/gcc/sh3eb-elf/8.3.0/libgcc.a(_pack_df.o)
 .debug_aranges
                0x0000000000000350       0x20 /home/jberben/Casio/sh3eb-elf-2.32-8.3.0/lib/gcc/sh3eb-elf/8.3.0/libgcc.a(_unpack_df.o)
 .debug_aranges
                0x0000000000000370       0x20 /home/jberben/Casio/sh3eb-elf-2.32-8.3.0/lib/gcc/sh3eb-elf/8.3.0/libgcc.a(_fpcmp_parts_df.o)

.debug_line     0x0000000000000000     0x483d
 .debug_line    0x0000000000000000      0x292 /home/jberben/Casio/sh3eb-elf-2.32-8.3.0/lib/gcc/sh3eb-elf/8.3.0/../../../../sh3eb-elf/lib/libm.a(lib_a-s_cos.o)
 .debug_line    0x0000000000000292      0x213 /home/jberben/Casio/sh3eb-elf-2.32-8.3.0/lib/gcc/sh3eb-elf/8.3.0/../../../../sh3eb-elf/lib/libm.a(lib_a-s_fabs.o)
 .debug_line    0x00000000000004a5      0x291 /home/jberben/Casio/sh3eb-elf-2.32-8.3.0/lib/gcc/sh3eb-elf/8.3.0/../../../../sh3eb-elf/lib/libm.a(lib_a-s_sin.o)
 .debug_line    0x0000000000000736      0x267 /home/jberben/Casio/sh3eb-elf-2.32-8.3.0/lib/gcc/sh3eb-elf/8.3.0/../../../../sh3eb-elf/lib/libm.a(lib_a-s_tan.o)
 .debug_line    0x000000000000099d      0x5fd /home/jberben/Casio/sh3eb-elf-2.32-8.3.0/lib/gcc/sh3eb-elf/8.3.0/../../../../sh3eb-elf/lib/libm.a(lib_a-e_rem_pio2.o)
 .debug_line    0x0000000000000f9a      0x2a8 /home/jberben/Casio/sh3eb-elf-2.32-8.3.0/lib/gcc/sh3eb-elf/8.3.0/../../../../sh3eb-elf/lib/libm.a(lib_a-k_cos.o)
 .debug_line    0x0000000000001242      0xa67 /home/jberben/Casio/sh3eb-elf-2.32-8.3.0/lib/gcc/sh3eb-elf/8.3.0/../../../../sh3eb-elf/lib/libm.a(lib_a-k_rem_pio2.o)
 .debug_line    0x0000000000001ca9      0x2c7 /home/jberben/Casio/sh3eb-elf-2.32-8.3.0/lib/gcc/sh3eb-elf/8.3.0/../../../../sh3eb-elf/lib/libm.a(lib_a-k_sin.o)
 .debug_line    0x0000000000001f70      0x436 /home/jberben/Casio/sh3eb-elf-2.32-8.3.0/lib/gcc/sh3eb-elf/8.3.0/../../../../sh3eb-elf/lib/libm.a(lib_a-k_tan.o)
 .debug_line    0x00000000000023a6      0x368 /home/jberben/Casio/sh3eb-elf-2.32-8.3.0/lib/gcc/sh3eb-elf/8.3.0/../../../../sh3eb-elf/lib/libm.a(lib_a-s_floor.o)
 .debug_line    0x000000000000270e      0x2ef /home/jberben/Casio/sh3eb-elf-2.32-8.3.0/lib/gcc/sh3eb-elf/8.3.0/../../../../sh3eb-elf/lib/libm.a(lib_a-s_scalbn.o)
 .debug_line    0x00000000000029fd      0x27a /home/jberben/Casio/sh3eb-elf-2.32-8.3.0/lib/gcc/sh3eb-elf/8.3.0/libgcc.a(_udivdi3.o)
 .debug_line    0x0000000000002c77      0x3b4 /home/jberben/Casio/sh3eb-elf-2.32-8.3.0/lib/gcc/sh3eb-elf/8.3.0/libgcc.a(_addsub_df.o)
 .debug_line    0x000000000000302b      0x344 /home/jberben/Casio/sh3eb-elf-2.32-8.3.0/lib/gcc/sh3eb-elf/8.3.0/libgcc.a(_mul_df.o)
 .debug_line    0x000000000000336f      0x271 /home/jberben/Casio/sh3eb-elf-2.32-8.3.0/lib/gcc/sh3eb-elf/8.3.0/libgcc.a(_div_df.o)
 .debug_line    0x00000000000035e0      0x111 /home/jberben/Casio/sh3eb-elf-2.32-8.3.0/lib/gcc/sh3eb-elf/8.3.0/libgcc.a(_eq_df.o)
 .debug_line    0x00000000000036f1      0x111 /home/jberben/Casio/sh3eb-elf-2.32-8.3.0/lib/gcc/sh3eb-elf/8.3.0/libgcc.a(_ne_df.o)
 .debug_line    0x0000000000003802      0x10e /home/jberben/Casio/sh3eb-elf-2.32-8.3.0/lib/gcc/sh3eb-elf/8.3.0/libgcc.a(_gt_df.o)
 .debug_line    0x0000000000003910      0x10e /home/jberben/Casio/sh3eb-elf-2.32-8.3.0/lib/gcc/sh3eb-elf/8.3.0/libgcc.a(_ge_df.o)
 .debug_line    0x0000000000003a1e      0x111 /home/jberben/Casio/sh3eb-elf-2.32-8.3.0/lib/gcc/sh3eb-elf/8.3.0/libgcc.a(_lt_df.o)
 .debug_line    0x0000000000003b2f      0x111 /home/jberben/Casio/sh3eb-elf-2.32-8.3.0/lib/gcc/sh3eb-elf/8.3.0/libgcc.a(_le_df.o)
 .debug_line    0x0000000000003c40      0x18d /home/jberben/Casio/sh3eb-elf-2.32-8.3.0/lib/gcc/sh3eb-elf/8.3.0/libgcc.a(_si_to_df.o)
 .debug_line    0x0000000000003dcd      0x148 /home/jberben/Casio/sh3eb-elf-2.32-8.3.0/lib/gcc/sh3eb-elf/8.3.0/libgcc.a(_df_to_si.o)
 .debug_line    0x0000000000003f15       0xa2 /home/jberben/Casio/sh3eb-elf-2.32-8.3.0/lib/gcc/sh3eb-elf/8.3.0/libgcc.a(_thenan_df.o)
 .debug_line    0x0000000000003fb7       0xd6 /home/jberben/Casio/sh3eb-elf-2.32-8.3.0/lib/gcc/sh3eb-elf/8.3.0/libgcc.a(_clz.o)
 .debug_line    0x000000000000408d      0x129 /home/jberben/Casio/sh3eb-elf-2.32-8.3.0/lib/gcc/sh3eb-elf/8.3.0/libgcc.a(_clzsi2.o)
 .debug_line    0x00000000000041b6      0x306 /home/jberben/Casio/sh3eb-elf-2.32-8.3.0/lib/gcc/sh3eb-elf/8.3.0/libgcc.a(_pack_df.o)
 .debug_line    0x00000000000044bc      0x196 /home/jberben/Casio/sh3eb-elf-2.32-8.3.0/lib/gcc/sh3eb-elf/8.3.0/libgcc.a(_unpack_df.o)
 .debug_line    0x0000000000004652      0x1eb /home/jberben/Casio/sh3eb-elf-2.32-8.3.0/lib/gcc/sh3eb-elf/8.3.0/libgcc.a(_fpcmp_parts_df.o)

.debug_str      0x0000000000000000     0x1062
 .debug_str     0x0000000000000000      0x586 /home/jberben/Casio/sh3eb-elf-2.32-8.3.0/lib/gcc/sh3eb-elf/8.3.0/../../../../sh3eb-elf/lib/libm.a(lib_a-s_cos.o)
                                        0x5f1 (size before relaxing)
 .debug_str     0x0000000000000586       0x3d /home/jberben/Casio/sh3eb-elf-2.32-8.3.0/lib/gcc/sh3eb-elf/8.3.0/../../../../sh3eb-elf/lib/libm.a(lib_a-s_fabs.o)
                                        0x5ca (size before relaxing)
 .debug_str     0x00000000000005c3       0x2d /home/jberben/Casio/sh3eb-elf-2.32-8.3.0/lib/gcc/sh3eb-elf/8.3.0/../../../../sh3eb-elf/lib/libm.a(lib_a-s_sin.o)
                                        0x5f1 (size before relaxing)
 .debug_str     0x00000000000005f0       0x3a /home/jberben/Casio/sh3eb-elf-2.32-8.3.0/lib/gcc/sh3eb-elf/8.3.0/../../../../sh3eb-elf/lib/libm.a(lib_a-s_tan.o)
                                        0x5e4 (size before relaxing)
 .debug_str     0x000000000000062a       0xa3 /home/jberben/Casio/sh3eb-elf-2.32-8.3.0/lib/gcc/sh3eb-elf/8.3.0/../../../../sh3eb-elf/lib/libm.a(lib_a-e_rem_pio2.o)
                                        0x661 (size before relaxing)
 .debug_str     0x00000000000006cd       0x32 /home/jberben/Casio/sh3eb-elf-2.32-8.3.0/lib/gcc/sh3eb-elf/8.3.0/../../../../sh3eb-elf/lib/libm.a(lib_a-k_cos.o)
                                        0x5d6 (size before relaxing)
 .debug_str     0x00000000000006ff       0x6e /home/jberben/Casio/sh3eb-elf-2.32-8.3.0/lib/gcc/sh3eb-elf/8.3.0/../../../../sh3eb-elf/lib/libm.a(lib_a-k_rem_pio2.o)
                                        0x5ef (size before relaxing)
 .debug_str     0x000000000000076d       0x2d /home/jberben/Casio/sh3eb-elf-2.32-8.3.0/lib/gcc/sh3eb-elf/8.3.0/../../../../sh3eb-elf/lib/libm.a(lib_a-k_sin.o)
                                        0x5d6 (size before relaxing)
 .debug_str     0x000000000000079a       0x39 /home/jberben/Casio/sh3eb-elf-2.32-8.3.0/lib/gcc/sh3eb-elf/8.3.0/../../../../sh3eb-elf/lib/libm.a(lib_a-k_tan.o)
                                        0x5ec (size before relaxing)
 .debug_str     0x00000000000007d3       0x39 /home/jberben/Casio/sh3eb-elf-2.32-8.3.0/lib/gcc/sh3eb-elf/8.3.0/../../../../sh3eb-elf/lib/libm.a(lib_a-s_floor.o)
                                        0x5d6 (size before relaxing)
 .debug_str     0x000000000000080c       0xd1 /home/jberben/Casio/sh3eb-elf-2.32-8.3.0/lib/gcc/sh3eb-elf/8.3.0/../../../../sh3eb-elf/lib/libm.a(lib_a-s_scalbn.o)
                                        0x600 (size before relaxing)
 .debug_str     0x00000000000008dd      0x4cb /home/jberben/Casio/sh3eb-elf-2.32-8.3.0/lib/gcc/sh3eb-elf/8.3.0/libgcc.a(_udivdi3.o)
                                        0x598 (size before relaxing)
 .debug_str     0x0000000000000da8      0x1c5 /home/jberben/Casio/sh3eb-elf-2.32-8.3.0/lib/gcc/sh3eb-elf/8.3.0/libgcc.a(_addsub_df.o)
                                        0x605 (size before relaxing)
 .debug_str     0x0000000000000f6d       0x40 /home/jberben/Casio/sh3eb-elf-2.32-8.3.0/lib/gcc/sh3eb-elf/8.3.0/libgcc.a(_mul_df.o)
                                        0x5d7 (size before relaxing)
 .debug_str     0x0000000000000fad       0x35 /home/jberben/Casio/sh3eb-elf-2.32-8.3.0/lib/gcc/sh3eb-elf/8.3.0/libgcc.a(_div_df.o)
                                        0x5c7 (size before relaxing)
 .debug_str     0x0000000000000fe2       0x20 /home/jberben/Casio/sh3eb-elf-2.32-8.3.0/lib/gcc/sh3eb-elf/8.3.0/libgcc.a(_eq_df.o)
                                        0x594 (size before relaxing)
 .debug_str     0x0000000000001002        0x8 /home/jberben/Casio/sh3eb-elf-2.32-8.3.0/lib/gcc/sh3eb-elf/8.3.0/libgcc.a(_ne_df.o)
                                        0x594 (size before relaxing)
 .debug_str     0x000000000000100a        0x8 /home/jberben/Casio/sh3eb-elf-2.32-8.3.0/lib/gcc/sh3eb-elf/8.3.0/libgcc.a(_gt_df.o)
                                        0x594 (size before relaxing)
 .debug_str     0x0000000000001012        0x8 /home/jberben/Casio/sh3eb-elf-2.32-8.3.0/lib/gcc/sh3eb-elf/8.3.0/libgcc.a(_ge_df.o)
                                        0x594 (size before relaxing)
 .debug_str     0x000000000000101a        0x8 /home/jberben/Casio/sh3eb-elf-2.32-8.3.0/lib/gcc/sh3eb-elf/8.3.0/libgcc.a(_lt_df.o)
                                        0x594 (size before relaxing)
 .debug_str     0x0000000000001022        0x8 /home/jberben/Casio/sh3eb-elf-2.32-8.3.0/lib/gcc/sh3eb-elf/8.3.0/libgcc.a(_le_df.o)
                                        0x594 (size before relaxing)
 .debug_str     0x000000000000102a       0x27 /home/jberben/Casio/sh3eb-elf-2.32-8.3.0/lib/gcc/sh3eb-elf/8.3.0/libgcc.a(_si_to_df.o)
                                        0x56f (size before relaxing)
 .debug_str     0x0000000000001051        0xa /home/jberben/Casio/sh3eb-elf-2.32-8.3.0/lib/gcc/sh3eb-elf/8.3.0/libgcc.a(_df_to_si.o)
                                        0x58c (size before relaxing)
 .debug_str     0x000000000000105b      0x522 /home/jberben/Casio/sh3eb-elf-2.32-8.3.0/lib/gcc/sh3eb-elf/8.3.0/libgcc.a(_thenan_df.o)
 .debug_str     0x000000000000105b      0x515 /home/jberben/Casio/sh3eb-elf-2.32-8.3.0/lib/gcc/sh3eb-elf/8.3.0/libgcc.a(_clz.o)
 .debug_str     0x000000000000105b      0x532 /home/jberben/Casio/sh3eb-elf-2.32-8.3.0/lib/gcc/sh3eb-elf/8.3.0/libgcc.a(_clzsi2.o)
 .debug_str     0x000000000000105b        0x7 /home/jberben/Casio/sh3eb-elf-2.32-8.3.0/lib/gcc/sh3eb-elf/8.3.0/libgcc.a(_pack_df.o)
                                        0x580 (size before relaxing)
 .debug_str     0x0000000000001062      0x562 /home/jberben/Casio/sh3eb-elf-2.32-8.3.0/lib/gcc/sh3eb-elf/8.3.0/libgcc.a(_unpack_df.o)
 .debug_str     0x0000000000001062      0x545 /home/jberben/Casio/sh3eb-elf-2.32-8.3.0/lib/gcc/sh3eb-elf/8.3.0/libgcc.a(_fpcmp_parts_df.o)

.debug_frame    0x0000000000000000      0x87c
 .debug_frame   0x0000000000000000       0x34 /home/jberben/Casio/sh3eb-elf-2.32-8.3.0/lib/gcc/sh3eb-elf/8.3.0/../../../../sh3eb-elf/lib/libm.a(lib_a-s_cos.o)
 .debug_frame   0x0000000000000034       0x20 /home/jberben/Casio/sh3eb-elf-2.32-8.3.0/lib/gcc/sh3eb-elf/8.3.0/../../../../sh3eb-elf/lib/libm.a(lib_a-s_fabs.o)
 .debug_frame   0x0000000000000054       0x34 /home/jberben/Casio/sh3eb-elf-2.32-8.3.0/lib/gcc/sh3eb-elf/8.3.0/../../../../sh3eb-elf/lib/libm.a(lib_a-s_sin.o)
 .debug_frame   0x0000000000000088       0x34 /home/jberben/Casio/sh3eb-elf-2.32-8.3.0/lib/gcc/sh3eb-elf/8.3.0/../../../../sh3eb-elf/lib/libm.a(lib_a-s_tan.o)
 .debug_frame   0x00000000000000bc       0x70 /home/jberben/Casio/sh3eb-elf-2.32-8.3.0/lib/gcc/sh3eb-elf/8.3.0/../../../../sh3eb-elf/lib/libm.a(lib_a-e_rem_pio2.o)
 .debug_frame   0x000000000000012c       0x74 /home/jberben/Casio/sh3eb-elf-2.32-8.3.0/lib/gcc/sh3eb-elf/8.3.0/../../../../sh3eb-elf/lib/libm.a(lib_a-k_cos.o)
 .debug_frame   0x00000000000001a0       0x74 /home/jberben/Casio/sh3eb-elf-2.32-8.3.0/lib/gcc/sh3eb-elf/8.3.0/../../../../sh3eb-elf/lib/libm.a(lib_a-k_rem_pio2.o)
 .debug_frame   0x0000000000000214       0x74 /home/jberben/Casio/sh3eb-elf-2.32-8.3.0/lib/gcc/sh3eb-elf/8.3.0/../../../../sh3eb-elf/lib/libm.a(lib_a-k_sin.o)
 .debug_frame   0x0000000000000288       0x70 /home/jberben/Casio/sh3eb-elf-2.32-8.3.0/lib/gcc/sh3eb-elf/8.3.0/../../../../sh3eb-elf/lib/libm.a(lib_a-k_tan.o)
 .debug_frame   0x00000000000002f8       0x64 /home/jberben/Casio/sh3eb-elf-2.32-8.3.0/lib/gcc/sh3eb-elf/8.3.0/../../../../sh3eb-elf/lib/libm.a(lib_a-s_floor.o)
 .debug_frame   0x000000000000035c       0x50 /home/jberben/Casio/sh3eb-elf-2.32-8.3.0/lib/gcc/sh3eb-elf/8.3.0/../../../../sh3eb-elf/lib/libm.a(lib_a-s_scalbn.o)
 .debug_frame   0x00000000000003ac       0xc4 /home/jberben/Casio/sh3eb-elf-2.32-8.3.0/lib/gcc/sh3eb-elf/8.3.0/libgcc.a(_addsub_df.o)
 .debug_frame   0x0000000000000470       0x98 /home/jberben/Casio/sh3eb-elf-2.32-8.3.0/lib/gcc/sh3eb-elf/8.3.0/libgcc.a(_mul_df.o)
 .debug_frame   0x0000000000000508       0x50 /home/jberben/Casio/sh3eb-elf-2.32-8.3.0/lib/gcc/sh3eb-elf/8.3.0/libgcc.a(_div_df.o)
 .debug_frame   0x0000000000000558       0x48 /home/jberben/Casio/sh3eb-elf-2.32-8.3.0/lib/gcc/sh3eb-elf/8.3.0/libgcc.a(_eq_df.o)
 .debug_frame   0x00000000000005a0       0x48 /home/jberben/Casio/sh3eb-elf-2.32-8.3.0/lib/gcc/sh3eb-elf/8.3.0/libgcc.a(_ne_df.o)
 .debug_frame   0x00000000000005e8       0x3c /home/jberben/Casio/sh3eb-elf-2.32-8.3.0/lib/gcc/sh3eb-elf/8.3.0/libgcc.a(_gt_df.o)
 .debug_frame   0x0000000000000624       0x3c /home/jberben/Casio/sh3eb-elf-2.32-8.3.0/lib/gcc/sh3eb-elf/8.3.0/libgcc.a(_ge_df.o)
 .debug_frame   0x0000000000000660       0x48 /home/jberben/Casio/sh3eb-elf-2.32-8.3.0/lib/gcc/sh3eb-elf/8.3.0/libgcc.a(_lt_df.o)
 .debug_frame   0x00000000000006a8       0x48 /home/jberben/Casio/sh3eb-elf-2.32-8.3.0/lib/gcc/sh3eb-elf/8.3.0/libgcc.a(_le_df.o)
 .debug_frame   0x00000000000006f0       0x3c /home/jberben/Casio/sh3eb-elf-2.32-8.3.0/lib/gcc/sh3eb-elf/8.3.0/libgcc.a(_si_to_df.o)
 .debug_frame   0x000000000000072c       0x44 /home/jberben/Casio/sh3eb-elf-2.32-8.3.0/lib/gcc/sh3eb-elf/8.3.0/libgcc.a(_df_to_si.o)
 .debug_frame   0x0000000000000770       0x20 /home/jberben/Casio/sh3eb-elf-2.32-8.3.0/lib/gcc/sh3eb-elf/8.3.0/libgcc.a(_clzsi2.o)
 .debug_frame   0x0000000000000790       0xac /home/jberben/Casio/sh3eb-elf-2.32-8.3.0/lib/gcc/sh3eb-elf/8.3.0/libgcc.a(_pack_df.o)
 .debug_frame   0x000000000000083c       0x20 /home/jberben/Casio/sh3eb-elf-2.32-8.3.0/lib/gcc/sh3eb-elf/8.3.0/libgcc.a(_unpack_df.o)
 .debug_frame   0x000000000000085c       0x20 /home/jberben/Casio/sh3eb-elf-2.32-8.3.0/lib/gcc/sh3eb-elf/8.3.0/libgcc.a(_fpcmp_parts_df.o)

.debug_ranges   0x0000000000000000      0x448
 .debug_ranges  0x0000000000000000       0x50 /home/jberben/Casio/sh3eb-elf-2.32-8.3.0/lib/gcc/sh3eb-elf/8.3.0/../../../../sh3eb-elf/lib/libm.a(lib_a-e_rem_pio2.o)
 .debug_ranges  0x0000000000000050       0x90 /home/jberben/Casio/sh3eb-elf-2.32-8.3.0/lib/gcc/sh3eb-elf/8.3.0/../../../../sh3eb-elf/lib/libm.a(lib_a-k_tan.o)
 .debug_ranges  0x00000000000000e0       0x18 /home/jberben/Casio/sh3eb-elf-2.32-8.3.0/lib/gcc/sh3eb-elf/8.3.0/../../../../sh3eb-elf/lib/libm.a(lib_a-s_floor.o)
 .debug_ranges  0x00000000000000f8       0x48 /home/jberben/Casio/sh3eb-elf-2.32-8.3.0/lib/gcc/sh3eb-elf/8.3.0/../../../../sh3eb-elf/lib/libm.a(lib_a-s_scalbn.o)
 .debug_ranges  0x0000000000000140       0xd8 /home/jberben/Casio/sh3eb-elf-2.32-8.3.0/lib/gcc/sh3eb-elf/8.3.0/libgcc.a(_udivdi3.o)
 .debug_ranges  0x0000000000000218       0x48 /home/jberben/Casio/sh3eb-elf-2.32-8.3.0/lib/gcc/sh3eb-elf/8.3.0/libgcc.a(_addsub_df.o)
 .debug_ranges  0x0000000000000260       0xc0 /home/jberben/Casio/sh3eb-elf-2.32-8.3.0/lib/gcc/sh3eb-elf/8.3.0/libgcc.a(_mul_df.o)
 .debug_ranges  0x0000000000000320       0x60 /home/jberben/Casio/sh3eb-elf-2.32-8.3.0/lib/gcc/sh3eb-elf/8.3.0/libgcc.a(_div_df.o)
 .debug_ranges  0x0000000000000380       0x48 /home/jberben/Casio/sh3eb-elf-2.32-8.3.0/lib/gcc/sh3eb-elf/8.3.0/libgcc.a(_si_to_df.o)
 .debug_ranges  0x00000000000003c8       0x38 /home/jberben/Casio/sh3eb-elf-2.32-8.3.0/lib/gcc/sh3eb-elf/8.3.0/libgcc.a(_clzsi2.o)
 .debug_ranges  0x0000000000000400       0x48 /home/jberben/Casio/sh3eb-elf-2.32-8.3.0/lib/gcc/sh3eb-elf/8.3.0/libgcc.a(_pack_df.o)
